---
triple:          'arm64-apple-darwin'
binary-path:     "/Users/sunyunqi/Documents/c++ code/projects/找到字符串中所有字母异位词/test"
relocations:
  - { offsetInCU: 0x5C, offset: 0x5C, size: 0x8, addend: 0x0, symName: __ZNSt3__1L19piecewise_constructE, symObjAddr: 0xADEE, symBinAddr: 0x10000B8CE, symSize: 0x0 }
  - { offsetInCU: 0x8447, offset: 0x8447, size: 0x8, addend: 0x0, symName: __ZNSt3__124__put_character_sequenceB8ue170006IcNS_11char_traitsIcEEEERNS_13basic_ostreamIT_T0_EES7_PKS4_m, symObjAddr: 0x7134, symBinAddr: 0x100007890, symSize: 0x1EC }
  - { offsetInCU: 0xBA45, offset: 0xBA45, size: 0x8, addend: 0x0, symName: __ZNSt3__1lsB8ue170006INS_11char_traitsIcEEEERNS_13basic_ostreamIcT_EES6_PKc, symObjAddr: 0x9D8, symBinAddr: 0x100001134, symSize: 0x48 }
  - { offsetInCU: 0xBA8B, offset: 0xBA8B, size: 0x8, addend: 0x0, symName: __ZNSt3__14endlB8ue170006IcNS_11char_traitsIcEEEERNS_13basic_ostreamIT_T0_EES7_, symObjAddr: 0xA74, symBinAddr: 0x1000011D0, symSize: 0x58 }
  - { offsetInCU: 0xC587, offset: 0xC587, size: 0x8, addend: 0x0, symName: __ZNSt3__1eqB8ue170006ERKNS_19__hash_map_iteratorINS_15__hash_iteratorIPNS_11__hash_nodeINS_17__hash_value_typeIciEEPvEEEEEESB_, symObjAddr: 0xBC8, symBinAddr: 0x100001324, symSize: 0x30 }
  - { offsetInCU: 0xCCB8, offset: 0xCCB8, size: 0x8, addend: 0x0, symName: __ZNSt3__1lsB8ue170006INS_11char_traitsIcEEEERNS_13basic_ostreamIcT_EES6_c, symObjAddr: 0xE30, symBinAddr: 0x10000158C, symSize: 0x34 }
  - { offsetInCU: 0xCCFE, offset: 0xCCFE, size: 0x8, addend: 0x0, symName: __ZNSt3__1eqB8ue170006ERKNS_21__hash_const_iteratorIPNS_11__hash_nodeIcPvEEEES7_, symObjAddr: 0xE64, symBinAddr: 0x1000015C0, symSize: 0x30 }
  - { offsetInCU: 0xCD3B, offset: 0xCD3B, size: 0x8, addend: 0x0, symName: __ZNSt3__1neB8ue170006ERKNS_21__hash_const_iteratorIPNS_11__hash_nodeIcPvEEEES7_, symObjAddr: 0xF40, symBinAddr: 0x10000169C, symSize: 0x34 }
  - { offsetInCU: 0xCD78, offset: 0xCD78, size: 0x8, addend: 0x0, symName: __ZNSt3__1eqB8ue170006ERKNS_15__hash_iteratorIPNS_11__hash_nodeINS_17__hash_value_typeIciEEPvEEEES9_, symObjAddr: 0x18AC, symBinAddr: 0x100002008, symSize: 0x30 }
  - { offsetInCU: 0xCDB5, offset: 0xCDB5, size: 0x8, addend: 0x0, symName: __ZNSt3__116__constrain_hashB8ue170006Emm, symObjAddr: 0x1B40, symBinAddr: 0x10000229C, symSize: 0x98 }
  - { offsetInCU: 0xCE8C, offset: 0xCE8C, size: 0x8, addend: 0x0, symName: __ZNSt3__116forward_as_tupleB8ue170006IJRKcEEENS_5tupleIJDpOT_EEES6_, symObjAddr: 0x24DC, symBinAddr: 0x100002C38, symSize: 0x2C }
  - { offsetInCU: 0xCEC5, offset: 0xCEC5, size: 0x8, addend: 0x0, symName: __ZNSt3__116forward_as_tupleB8ue170006IJEEENS_5tupleIJDpOT_EEES4_, symObjAddr: 0x2508, symBinAddr: 0x100002C64, symSize: 0x4 }
  - { offsetInCU: 0xCEE9, offset: 0xCEE9, size: 0x8, addend: 0x0, symName: __ZNSt3__13maxB8ue170006ImEERKT_S3_S3_, symObjAddr: 0x271C, symBinAddr: 0x100002E78, symSize: 0x2C }
  - { offsetInCU: 0xCF2C, offset: 0xCF2C, size: 0x8, addend: 0x0, symName: __ZNSt3__116__is_hash_power2B8ue170006Em, symObjAddr: 0x2748, symBinAddr: 0x100002EA4, symSize: 0x50 }
  - { offsetInCU: 0xCF76, offset: 0xCF76, size: 0x8, addend: 0x0, symName: __ZNSt3__117__libcpp_allocateB8ue170006Emm, symObjAddr: 0x2B44, symBinAddr: 0x1000032A0, symSize: 0x28 }
  - { offsetInCU: 0xCFB3, offset: 0xCFB3, size: 0x8, addend: 0x0, symName: __ZNSt3__121__libcpp_operator_newB8ue170006IJmEEEPvDpT_, symObjAddr: 0x2B84, symBinAddr: 0x1000032E0, symSize: 0x24 }
  - { offsetInCU: 0xCFF7, offset: 0xCFF7, size: 0x8, addend: 0x0, symName: __ZNSt3__13getB8ue170006ILm0EJRKcEEERNS_13tuple_elementIXT_ENS_5tupleIJDpT0_EEEE4typeERS7_, symObjAddr: 0x2E00, symBinAddr: 0x10000355C, symSize: 0x24 }
  - { offsetInCU: 0xD03A, offset: 0xD03A, size: 0x8, addend: 0x0, symName: __ZNSt3__116__next_hash_pow2B8ue170006Em, symObjAddr: 0x3318, symBinAddr: 0x100003A74, symSize: 0x6C }
  - { offsetInCU: 0xD082, offset: 0xD082, size: 0x8, addend: 0x0, symName: __ZNSt3__119__libcpp_deallocateB8ue170006EPvmm, symObjAddr: 0x360C, symBinAddr: 0x100003D68, symSize: 0x30 }
  - { offsetInCU: 0xD0CA, offset: 0xD0CA, size: 0x8, addend: 0x0, symName: __ZNSt3__127__do_deallocate_handle_sizeB8ue170006IJEEEvPvmDpT_, symObjAddr: 0x363C, symBinAddr: 0x100003D98, symSize: 0x28 }
  - { offsetInCU: 0xD108, offset: 0xD108, size: 0x8, addend: 0x0, symName: __ZNSt3__124__libcpp_operator_deleteB8ue170006IJPvEEEvDpT_, symObjAddr: 0x3664, symBinAddr: 0x100003DC0, symSize: 0x24 }
  - { offsetInCU: 0xD13D, offset: 0xD13D, size: 0x8, addend: 0x0, symName: __ZNSt3__112__libcpp_clzB8ue170006Em, symObjAddr: 0x373C, symBinAddr: 0x100003E98, symSize: 0x1C }
  - { offsetInCU: 0xD169, offset: 0xD169, size: 0x8, addend: 0x0, symName: __ZNSt3__13maxB8ue170006ImNS_6__lessIvvEEEERKT_S5_S5_T0_, symObjAddr: 0x3758, symBinAddr: 0x100003EB4, symSize: 0x54 }
  - { offsetInCU: 0xD25F, offset: 0xD25F, size: 0x8, addend: 0x0, symName: __ZNSt3__1neB8ue170006IPcEEbRKNS_11__wrap_iterIT_EES6_, symObjAddr: 0x4288, symBinAddr: 0x1000049E4, symSize: 0x34 }
  - { offsetInCU: 0xD2A2, offset: 0xD2A2, size: 0x8, addend: 0x0, symName: __ZNSt3__1eqB8ue170006IPcEEbRKNS_11__wrap_iterIT_EES6_, symObjAddr: 0x4344, symBinAddr: 0x100004AA0, symSize: 0x48 }
  - { offsetInCU: 0xD354, offset: 0xD354, size: 0x8, addend: 0x0, symName: __ZNSt3__1neB8ue170006ERKNS_25__hash_map_const_iteratorINS_21__hash_const_iteratorIPNS_11__hash_nodeINS_17__hash_value_typeIciEEPvEEEEEESB_, symObjAddr: 0x6718, symBinAddr: 0x100006E74, symSize: 0x30 }
  - { offsetInCU: 0xD391, offset: 0xD391, size: 0x8, addend: 0x0, symName: __ZNSt3__1neB8ue170006ERKNS_21__hash_const_iteratorIPNS_11__hash_nodeINS_17__hash_value_typeIciEEPvEEEES9_, symObjAddr: 0x67EC, symBinAddr: 0x100006F48, symSize: 0x34 }
  - { offsetInCU: 0xD3CE, offset: 0xD3CE, size: 0x8, addend: 0x0, symName: __ZNSt3__1eqB8ue170006ERKNS_21__hash_const_iteratorIPNS_11__hash_nodeINS_17__hash_value_typeIciEEPvEEEES9_, symObjAddr: 0x6820, symBinAddr: 0x100006F7C, symSize: 0x30 }
  - { offsetInCU: 0xD43E, offset: 0xD43E, size: 0x8, addend: 0x0, symName: __ZNSt3__116__pad_and_outputB8ue170006IcNS_11char_traitsIcEEEENS_19ostreambuf_iteratorIT_T0_EES6_PKS4_S8_S8_RNS_8ios_baseES4_, symObjAddr: 0x733C, symBinAddr: 0x100007A98, symSize: 0x240 }
  - { offsetInCU: 0xD50D, offset: 0xD50D, size: 0x8, addend: 0x0, symName: __ZNSt3__112__to_addressB8ue170006IKcEEPT_S3_, symObjAddr: 0x78A4, symBinAddr: 0x100008000, symSize: 0x14 }
  - { offsetInCU: 0xD575, offset: 0xD575, size: 0x8, addend: 0x0, symName: __ZNSt3__19use_facetB8ue170006INS_5ctypeIcEEEERKT_RKNS_6localeE, symObjAddr: 0x7AB4, symBinAddr: 0x100008210, symSize: 0x2C }
  - { offsetInCU: 0xDA66, offset: 0xDA66, size: 0x8, addend: 0x0, symName: __ZNSt3__112__to_addressB8ue170006IiEEPT_S2_, symObjAddr: 0x9214, symBinAddr: 0x100009970, symSize: 0x14 }
  - { offsetInCU: 0xDA9B, offset: 0xDA9B, size: 0x8, addend: 0x0, symName: __ZNSt3__13minB8ue170006ImEERKT_S3_S3_, symObjAddr: 0x9608, symBinAddr: 0x100009D64, symSize: 0x2C }
  - { offsetInCU: 0xDCDF, offset: 0xDCDF, size: 0x8, addend: 0x0, symName: __ZNSt3__13minB8ue170006ImNS_6__lessIvvEEEERKT_S5_S5_T0_, symObjAddr: 0x9694, symBinAddr: 0x100009DF0, symSize: 0x54 }
  - { offsetInCU: 0xDD39, offset: 0xDD39, size: 0x8, addend: 0x0, symName: __ZNSt3__120__throw_length_errorB8ue170006EPKc, symObjAddr: 0x973C, symBinAddr: 0x100009E98, symSize: 0x64 }
  - { offsetInCU: 0xDD63, offset: 0xDD63, size: 0x8, addend: 0x0, symName: __ZNSt3__119__allocate_at_leastB8ue170006INS_9allocatorIiEEEENS_19__allocation_resultINS_16allocator_traitsIT_E7pointerEEERS5_m, symObjAddr: 0x9990, symBinAddr: 0x10000A0EC, symSize: 0x40 }
  - { offsetInCU: 0xDDA6, offset: 0xDDA6, size: 0x8, addend: 0x0, symName: __ZNSt3__142__uninitialized_allocator_move_if_noexceptB8ue170006INS_9allocatorIiEENS_16reverse_iteratorIPiEES5_ivEET1_RT_T0_S9_S6_, symObjAddr: 0x9BFC, symBinAddr: 0x10000A358, symSize: 0x78 }
  - { offsetInCU: 0xDE23, offset: 0xDE23, size: 0x8, addend: 0x0, symName: __ZNSt3__14swapB8ue170006IPiEENS_9enable_ifIXaasr21is_move_constructibleIT_EE5valuesr18is_move_assignableIS3_EE5valueEvE4typeERS3_S6_, symObjAddr: 0x9CC0, symBinAddr: 0x10000A41C, symSize: 0x3C }
  - { offsetInCU: 0xDE74, offset: 0xDE74, size: 0x8, addend: 0x0, symName: __ZNSt3__14moveB8ue170006INS_16reverse_iteratorIPiEES3_EET0_T_S5_S4_, symObjAddr: 0x9DF0, symBinAddr: 0x10000A54C, symSize: 0x78 }
  - { offsetInCU: 0xDECE, offset: 0xDECE, size: 0x8, addend: 0x0, symName: __ZNSt3__16__moveB8ue170006INS_17_ClassicAlgPolicyENS_16reverse_iteratorIPiEES4_S4_EENS_4pairIT0_T2_EES6_T1_S7_, symObjAddr: 0x9E68, symBinAddr: 0x10000A5C4, symSize: 0x64 }
  - { offsetInCU: 0xDF3A, offset: 0xDF3A, size: 0x8, addend: 0x0, symName: __ZNSt3__123__dispatch_copy_or_moveB8ue170006INS_17_ClassicAlgPolicyENS_11__move_loopIS1_EENS_14__move_trivialENS_16reverse_iteratorIPiEES7_S7_EENS_4pairIT2_T4_EES9_T3_SA_, symObjAddr: 0x9ECC, symBinAddr: 0x10000A628, symSize: 0x64 }
  - { offsetInCU: 0xDFB8, offset: 0xDFB8, size: 0x8, addend: 0x0, symName: __ZNSt3__121__unwrap_and_dispatchB8ue170006INS_10__overloadINS_11__move_loopINS_17_ClassicAlgPolicyEEENS_14__move_trivialEEENS_16reverse_iteratorIPiEES9_S9_Li0EEENS_4pairIT0_T2_EESB_T1_SC_, symObjAddr: 0x9F30, symBinAddr: 0x10000A68C, symSize: 0x12C }
  - { offsetInCU: 0xE048, offset: 0xE048, size: 0x8, addend: 0x0, symName: __ZNSt3__114__unwrap_rangeB8ue170006INS_16reverse_iteratorIPiEES3_EENS_4pairIT0_S5_EET_S7_, symObjAddr: 0xA05C, symBinAddr: 0x10000A7B8, symSize: 0x84 }
  - { offsetInCU: 0xE1C3, offset: 0xE1C3, size: 0x8, addend: 0x0, symName: __ZNSt3__113__unwrap_iterB8ue170006INS_16reverse_iteratorIPiEENS_18__unwrap_iter_implIS3_Lb0EEELi0EEEDTclsrT0_8__unwrapclsr3stdE7declvalIT_EEEES7_, symObjAddr: 0xA180, symBinAddr: 0x10000A8DC, symSize: 0x44 }
  - { offsetInCU: 0xE207, offset: 0xE207, size: 0x8, addend: 0x0, symName: __ZNSt3__19make_pairB8ue170006INS_16reverse_iteratorIPiEES3_EENS_4pairINS_18__unwrap_ref_decayIT_E4typeENS5_IT0_E4typeEEEOS6_OS9_, symObjAddr: 0xA1C4, symBinAddr: 0x10000A920, symSize: 0x38 }
  - { offsetInCU: 0xE256, offset: 0xE256, size: 0x8, addend: 0x0, symName: __ZNSt3__114__rewrap_rangeB8ue170006INS_16reverse_iteratorIPiEES3_EET_S4_T0_, symObjAddr: 0xA1FC, symBinAddr: 0x10000A958, symSize: 0x5C }
  - { offsetInCU: 0xE2A2, offset: 0xE2A2, size: 0x8, addend: 0x0, symName: __ZNSt3__113__rewrap_iterB8ue170006INS_16reverse_iteratorIPiEES3_NS_18__unwrap_iter_implIS3_Lb0EEEEET_S6_T0_, symObjAddr: 0xA258, symBinAddr: 0x10000A9B4, symSize: 0x74 }
  - { offsetInCU: 0xE2F7, offset: 0xE2F7, size: 0x8, addend: 0x0, symName: __ZNSt3__1neB8ue170006IPiS1_EEbRKNS_16reverse_iteratorIT_EERKNS2_IT0_EE, symObjAddr: 0xA2CC, symBinAddr: 0x10000AA28, symSize: 0x48 }
  - { offsetInCU: 0xE3F5, offset: 0xE3F5, size: 0x8, addend: 0x0, symName: __ZNSt3__118__constexpr_strlenB8ue170006EPKc, symObjAddr: 0xA978, symBinAddr: 0x10000B0D4, symSize: 0x24 }
  - { offsetInCU: 0xE7CF, offset: 0xE7CF, size: 0x8, addend: 0x0, symName: __ZSt28__throw_bad_array_new_lengthB8ue170006v, symObjAddr: 0x2B10, symBinAddr: 0x10000326C, symSize: 0x34 }
  - { offsetInCU: 0xF666, offset: 0xF666, size: 0x8, addend: 0x0, symName: __ZNSt3__16vectorIiNS_9allocatorIiEEE26__swap_out_circular_bufferERNS_14__split_bufferIiRS2_EE, symObjAddr: 0x9410, symBinAddr: 0x100009B6C, symSize: 0x110 }
  - { offsetInCU: 0x119E3, offset: 0x119E3, size: 0x8, addend: 0x0, symName: _main, symObjAddr: 0x0, symBinAddr: 0x10000075C, symSize: 0x1F8 }
  - { offsetInCU: 0x11A5A, offset: 0x11A5A, size: 0x8, addend: 0x0, symName: __ZNSt3__112basic_stringIcNS_11char_traitsIcEENS_9allocatorIcEEEC1B8ue170006ILi0EEEPKc, symObjAddr: 0x1F8, symBinAddr: 0x100000954, symSize: 0x34 }
  - { offsetInCU: 0x11AC7, offset: 0x11AC7, size: 0x8, addend: 0x0, symName: __ZN8Solution12findAnagramsENSt3__112basic_stringIcNS0_11char_traitsIcEENS0_9allocatorIcEEEES6_, symObjAddr: 0x22C, symBinAddr: 0x100000988, symSize: 0x7AC }
  - { offsetInCU: 0x11B88, offset: 0x11B88, size: 0x8, addend: 0x0, symName: __ZNKSt3__16vectorIiNS_9allocatorIiEEE4sizeB8ue170006Ev, symObjAddr: 0xA20, symBinAddr: 0x10000117C, symSize: 0x28 }
  - { offsetInCU: 0x11BAD, offset: 0x11BAD, size: 0x8, addend: 0x0, symName: __ZNSt3__113basic_ostreamIcNS_11char_traitsIcEEElsB8ue170006EPFRS3_S4_E, symObjAddr: 0xA48, symBinAddr: 0x1000011A4, symSize: 0x2C }
  - { offsetInCU: 0x11BE0, offset: 0x11BE0, size: 0x8, addend: 0x0, symName: __ZNSt3__16vectorIiNS_9allocatorIiEEEixB8ue170006Em, symObjAddr: 0xACC, symBinAddr: 0x100001228, symSize: 0x24 }
  - { offsetInCU: 0x11C16, offset: 0x11C16, size: 0x8, addend: 0x0, symName: __ZNSt3__16vectorIiNS_9allocatorIiEEED1B8ue170006Ev, symObjAddr: 0xAF0, symBinAddr: 0x10000124C, symSize: 0x2C }
  - { offsetInCU: 0x11C3F, offset: 0x11C3F, size: 0x8, addend: 0x0, symName: __ZNKSt3__112basic_stringIcNS_11char_traitsIcEENS_9allocatorIcEEE4sizeB8ue170006Ev, symObjAddr: 0xB1C, symBinAddr: 0x100001278, symSize: 0x54 }
  - { offsetInCU: 0x11C64, offset: 0x11C64, size: 0x8, addend: 0x0, symName: __ZNSt3__16vectorIiNS_9allocatorIiEEEC1B8ue170006Ev, symObjAddr: 0xB70, symBinAddr: 0x1000012CC, symSize: 0x2C }
  - { offsetInCU: 0x11D5A, offset: 0x11D5A, size: 0x8, addend: 0x0, symName: __ZNSt3__113unordered_mapIciNS_4hashIcEENS_8equal_toIcEENS_9allocatorINS_4pairIKciEEEEEC1B8ue170006Ev, symObjAddr: 0xB9C, symBinAddr: 0x1000012F8, symSize: 0x2C }
  - { offsetInCU: 0x11D83, offset: 0x11D83, size: 0x8, addend: 0x0, symName: __ZNSt3__113unordered_mapIciNS_4hashIcEENS_8equal_toIcEENS_9allocatorINS_4pairIKciEEEEE4findB8ue170006ERS7_, symObjAddr: 0xBF8, symBinAddr: 0x100001354, symSize: 0x40 }
  - { offsetInCU: 0x11DB7, offset: 0x11DB7, size: 0x8, addend: 0x0, symName: __ZNSt3__112basic_stringIcNS_11char_traitsIcEENS_9allocatorIcEEEixB8ue170006Em, symObjAddr: 0xC38, symBinAddr: 0x100001394, symSize: 0x30 }
  - { offsetInCU: 0x11DEB, offset: 0x11DEB, size: 0x8, addend: 0x0, symName: __ZNSt3__113unordered_mapIciNS_4hashIcEENS_8equal_toIcEENS_9allocatorINS_4pairIKciEEEEE3endB8ue170006Ev, symObjAddr: 0xC68, symBinAddr: 0x1000013C4, symSize: 0x38 }
  - { offsetInCU: 0x11E0F, offset: 0x11E0F, size: 0x8, addend: 0x0, symName: __ZNSt3__113unordered_mapIciNS_4hashIcEENS_8equal_toIcEENS_9allocatorINS_4pairIKciEEEEEixERS7_, symObjAddr: 0xCA0, symBinAddr: 0x1000013FC, symSize: 0x80 }
  - { offsetInCU: 0x11E45, offset: 0x11E45, size: 0x8, addend: 0x0, symName: __ZNSt3__112basic_stringIcNS_11char_traitsIcEENS_9allocatorIcEEE5beginB8ue170006Ev, symObjAddr: 0xD20, symBinAddr: 0x10000147C, symSize: 0x4C }
  - { offsetInCU: 0x11E6A, offset: 0x11E6A, size: 0x8, addend: 0x0, symName: __ZNSt3__112basic_stringIcNS_11char_traitsIcEENS_9allocatorIcEEE3endB8ue170006Ev, symObjAddr: 0xD6C, symBinAddr: 0x1000014C8, symSize: 0x54 }
  - { offsetInCU: 0x11EE4, offset: 0x11EE4, size: 0x8, addend: 0x0, symName: __ZNSt3__113unordered_setIcNS_4hashIcEENS_8equal_toIcEENS_9allocatorIcEEEC1INS_11__wrap_iterIPcEEEET_SC_, symObjAddr: 0xDC0, symBinAddr: 0x10000151C, symSize: 0x3C }
  - { offsetInCU: 0x11F36, offset: 0x11F36, size: 0x8, addend: 0x0, symName: __ZNSt3__113unordered_mapIciNS_4hashIcEENS_8equal_toIcEENS_9allocatorINS_4pairIKciEEEEEC1ERKSA_, symObjAddr: 0xDFC, symBinAddr: 0x100001558, symSize: 0x34 }
  - { offsetInCU: 0x11F70, offset: 0x11F70, size: 0x8, addend: 0x0, symName: __ZNSt3__113unordered_setIcNS_4hashIcEENS_8equal_toIcEENS_9allocatorIcEEE4findB8ue170006ERKc, symObjAddr: 0xE94, symBinAddr: 0x1000015F0, symSize: 0x40 }
  - { offsetInCU: 0x11FA4, offset: 0x11FA4, size: 0x8, addend: 0x0, symName: __ZNSt3__113unordered_setIcNS_4hashIcEENS_8equal_toIcEENS_9allocatorIcEEE3endB8ue170006Ev, symObjAddr: 0xED4, symBinAddr: 0x100001630, symSize: 0x38 }
  - { offsetInCU: 0x11FC9, offset: 0x11FC9, size: 0x8, addend: 0x0, symName: __ZNSt3__113unordered_mapIciNS_4hashIcEENS_8equal_toIcEENS_9allocatorINS_4pairIKciEEEEEaSB8ue170006ERKSA_, symObjAddr: 0xF0C, symBinAddr: 0x100001668, symSize: 0x34 }
  - { offsetInCU: 0x11FFC, offset: 0x11FFC, size: 0x8, addend: 0x0, symName: __ZNSt3__16vectorIiNS_9allocatorIiEEE9push_backB8ue170006ERKi, symObjAddr: 0xF74, symBinAddr: 0x1000016D0, symSize: 0x6C }
  - { offsetInCU: 0x12032, offset: 0x12032, size: 0x8, addend: 0x0, symName: __ZNSt3__113unordered_mapIciNS_4hashIcEENS_8equal_toIcEENS_9allocatorINS_4pairIKciEEEEED1B8ue170006Ev, symObjAddr: 0xFE0, symBinAddr: 0x10000173C, symSize: 0x2C }
  - { offsetInCU: 0x1205B, offset: 0x1205B, size: 0x8, addend: 0x0, symName: __ZNSt3__113unordered_setIcNS_4hashIcEENS_8equal_toIcEENS_9allocatorIcEEED1B8ue170006Ev, symObjAddr: 0x100C, symBinAddr: 0x100001768, symSize: 0x2C }
  - { offsetInCU: 0x12084, offset: 0x12084, size: 0x8, addend: 0x0, symName: __ZNKSt3__112basic_stringIcNS_11char_traitsIcEENS_9allocatorIcEEE9__is_longB8ue170006Ev, symObjAddr: 0x1038, symBinAddr: 0x100001794, symSize: 0x38 }
  - { offsetInCU: 0x120A9, offset: 0x120A9, size: 0x8, addend: 0x0, symName: __ZNKSt3__112basic_stringIcNS_11char_traitsIcEENS_9allocatorIcEEE15__get_long_sizeB8ue170006Ev, symObjAddr: 0x1070, symBinAddr: 0x1000017CC, symSize: 0x28 }
  - { offsetInCU: 0x120CE, offset: 0x120CE, size: 0x8, addend: 0x0, symName: __ZNKSt3__112basic_stringIcNS_11char_traitsIcEENS_9allocatorIcEEE16__get_short_sizeB8ue170006Ev, symObjAddr: 0x1098, symBinAddr: 0x1000017F4, symSize: 0x34 }
  - { offsetInCU: 0x120F3, offset: 0x120F3, size: 0x8, addend: 0x0, symName: __ZNKSt3__117__compressed_pairINS_12basic_stringIcNS_11char_traitsIcEENS_9allocatorIcEEE5__repES5_E5firstB8ue170006Ev, symObjAddr: 0x10CC, symBinAddr: 0x100001828, symSize: 0x24 }
  - { offsetInCU: 0x12118, offset: 0x12118, size: 0x8, addend: 0x0, symName: __ZNKSt3__122__compressed_pair_elemINS_12basic_stringIcNS_11char_traitsIcEENS_9allocatorIcEEE5__repELi0ELb0EE5__getB8ue170006Ev, symObjAddr: 0x10F0, symBinAddr: 0x10000184C, symSize: 0x14 }
  - { offsetInCU: 0x1213D, offset: 0x1213D, size: 0x8, addend: 0x0, symName: __ZNSt3__16vectorIiNS_9allocatorIiEEEC2B8ue170006Ev, symObjAddr: 0x1104, symBinAddr: 0x100001860, symSize: 0x4C }
  - { offsetInCU: 0x12170, offset: 0x12170, size: 0x8, addend: 0x0, symName: __ZNSt3__117__compressed_pairIPiNS_9allocatorIiEEEC1B8ue170006IDnNS_18__default_init_tagEEEOT_OT0_, symObjAddr: 0x1150, symBinAddr: 0x1000018AC, symSize: 0x3C }
  - { offsetInCU: 0x121C7, offset: 0x121C7, size: 0x8, addend: 0x0, symName: __ZNSt3__117__compressed_pairIPiNS_9allocatorIiEEEC2B8ue170006IDnNS_18__default_init_tagEEEOT_OT0_, symObjAddr: 0x1198, symBinAddr: 0x1000018F4, symSize: 0x40 }
  - { offsetInCU: 0x1221E, offset: 0x1221E, size: 0x8, addend: 0x0, symName: __ZNSt3__122__compressed_pair_elemIPiLi0ELb0EEC2B8ue170006IDnvEEOT_, symObjAddr: 0x11D8, symBinAddr: 0x100001934, symSize: 0x1C }
  - { offsetInCU: 0x1225F, offset: 0x1225F, size: 0x8, addend: 0x0, symName: __ZNSt3__122__compressed_pair_elemINS_9allocatorIiEELi1ELb1EEC2B8ue170006ENS_18__default_init_tagE, symObjAddr: 0x11F4, symBinAddr: 0x100001950, symSize: 0x2C }
  - { offsetInCU: 0x12293, offset: 0x12293, size: 0x8, addend: 0x0, symName: __ZNSt3__19allocatorIiEC2B8ue170006Ev, symObjAddr: 0x1220, symBinAddr: 0x10000197C, symSize: 0x2C }
  - { offsetInCU: 0x122BC, offset: 0x122BC, size: 0x8, addend: 0x0, symName: __ZNSt3__116__non_trivial_ifILb1ENS_9allocatorIiEEEC2B8ue170006Ev, symObjAddr: 0x124C, symBinAddr: 0x1000019A8, symSize: 0x14 }
  - { offsetInCU: 0x122E5, offset: 0x122E5, size: 0x8, addend: 0x0, symName: __ZNSt3__113unordered_mapIciNS_4hashIcEENS_8equal_toIcEENS_9allocatorINS_4pairIKciEEEEEC2B8ue170006Ev, symObjAddr: 0x1260, symBinAddr: 0x1000019BC, symSize: 0x2C }
  - { offsetInCU: 0x1230E, offset: 0x1230E, size: 0x8, addend: 0x0, symName: __ZNSt3__112__hash_tableINS_17__hash_value_typeIciEENS_22__unordered_map_hasherIcS2_NS_4hashIcEENS_8equal_toIcEELb1EEENS_21__unordered_map_equalIcS2_S7_S5_Lb1EEENS_9allocatorIS2_EEEC1Ev, symObjAddr: 0x128C, symBinAddr: 0x1000019E8, symSize: 0x2C }
  - { offsetInCU: 0x12339, offset: 0x12339, size: 0x8, addend: 0x0, symName: __ZNSt3__112__hash_tableINS_17__hash_value_typeIciEENS_22__unordered_map_hasherIcS2_NS_4hashIcEENS_8equal_toIcEELb1EEENS_21__unordered_map_equalIcS2_S7_S5_Lb1EEENS_9allocatorIS2_EEEC2Ev, symObjAddr: 0x12B8, symBinAddr: 0x100001A14, symSize: 0x7C }
  - { offsetInCU: 0x12364, offset: 0x12364, size: 0x8, addend: 0x0, symName: __ZNSt3__110unique_ptrIA_PNS_16__hash_node_baseIPNS_11__hash_nodeINS_17__hash_value_typeIciEEPvEEEENS_25__bucket_list_deallocatorINS_9allocatorIS9_EEEEEC1B8ue170006ILb1EvEEv, symObjAddr: 0x1334, symBinAddr: 0x100001A90, symSize: 0x2C }
  - { offsetInCU: 0x12398, offset: 0x12398, size: 0x8, addend: 0x0, symName: __ZNSt3__117__compressed_pairINS_16__hash_node_baseIPNS_11__hash_nodeINS_17__hash_value_typeIciEEPvEEEENS_9allocatorIS6_EEEC1B8ue170006ILb1EvEEv, symObjAddr: 0x1360, symBinAddr: 0x100001ABC, symSize: 0x2C }
  - { offsetInCU: 0x123D1, offset: 0x123D1, size: 0x8, addend: 0x0, symName: __ZNSt3__117__compressed_pairImNS_22__unordered_map_hasherIcNS_17__hash_value_typeIciEENS_4hashIcEENS_8equal_toIcEELb1EEEEC1B8ue170006IiNS_18__default_init_tagEEEOT_OT0_, symObjAddr: 0x138C, symBinAddr: 0x100001AE8, symSize: 0x3C }
  - { offsetInCU: 0x1242D, offset: 0x1242D, size: 0x8, addend: 0x0, symName: __ZNSt3__117__compressed_pairIfNS_21__unordered_map_equalIcNS_17__hash_value_typeIciEENS_8equal_toIcEENS_4hashIcEELb1EEEEC1B8ue170006IfNS_18__default_init_tagEEEOT_OT0_, symObjAddr: 0x13C8, symBinAddr: 0x100001B24, symSize: 0x3C }
  - { offsetInCU: 0x12484, offset: 0x12484, size: 0x8, addend: 0x0, symName: __ZNSt3__110unique_ptrIA_PNS_16__hash_node_baseIPNS_11__hash_nodeINS_17__hash_value_typeIciEEPvEEEENS_25__bucket_list_deallocatorINS_9allocatorIS9_EEEEEC2B8ue170006ILb1EvEEv, symObjAddr: 0x1404, symBinAddr: 0x100001B60, symSize: 0x3C }
  - { offsetInCU: 0x124BD, offset: 0x124BD, size: 0x8, addend: 0x0, symName: __ZNSt3__117__compressed_pairIPPNS_16__hash_node_baseIPNS_11__hash_nodeINS_17__hash_value_typeIciEEPvEEEENS_25__bucket_list_deallocatorINS_9allocatorIS9_EEEEEC1B8ue170006INS_16__value_init_tagESH_EEOT_OT0_, symObjAddr: 0x1440, symBinAddr: 0x100001B9C, symSize: 0x3C }
  - { offsetInCU: 0x12514, offset: 0x12514, size: 0x8, addend: 0x0, symName: __ZNSt3__117__compressed_pairIPPNS_16__hash_node_baseIPNS_11__hash_nodeINS_17__hash_value_typeIciEEPvEEEENS_25__bucket_list_deallocatorINS_9allocatorIS9_EEEEEC2B8ue170006INS_16__value_init_tagESH_EEOT_OT0_, symObjAddr: 0x147C, symBinAddr: 0x100001BD8, symSize: 0x40 }
  - { offsetInCU: 0x1256B, offset: 0x1256B, size: 0x8, addend: 0x0, symName: __ZNSt3__122__compressed_pair_elemIPPNS_16__hash_node_baseIPNS_11__hash_nodeINS_17__hash_value_typeIciEEPvEEEELi0ELb0EEC2B8ue170006ENS_16__value_init_tagE, symObjAddr: 0x14BC, symBinAddr: 0x100001C18, symSize: 0x18 }
  - { offsetInCU: 0x1259F, offset: 0x1259F, size: 0x8, addend: 0x0, symName: __ZNSt3__122__compressed_pair_elemINS_25__bucket_list_deallocatorINS_9allocatorIPNS_16__hash_node_baseIPNS_11__hash_nodeINS_17__hash_value_typeIciEEPvEEEEEEEELi1ELb0EEC2B8ue170006ENS_16__value_init_tagE, symObjAddr: 0x14D4, symBinAddr: 0x100001C30, symSize: 0x2C }
  - { offsetInCU: 0x125D3, offset: 0x125D3, size: 0x8, addend: 0x0, symName: __ZNSt3__125__bucket_list_deallocatorINS_9allocatorIPNS_16__hash_node_baseIPNS_11__hash_nodeINS_17__hash_value_typeIciEEPvEEEEEEEC1B8ue170006Ev, symObjAddr: 0x1500, symBinAddr: 0x100001C5C, symSize: 0x2C }
  - { offsetInCU: 0x125FC, offset: 0x125FC, size: 0x8, addend: 0x0, symName: __ZNSt3__125__bucket_list_deallocatorINS_9allocatorIPNS_16__hash_node_baseIPNS_11__hash_nodeINS_17__hash_value_typeIciEEPvEEEEEEEC2B8ue170006Ev, symObjAddr: 0x152C, symBinAddr: 0x100001C88, symSize: 0x40 }
  - { offsetInCU: 0x12625, offset: 0x12625, size: 0x8, addend: 0x0, symName: __ZNSt3__117__compressed_pairImNS_9allocatorIPNS_16__hash_node_baseIPNS_11__hash_nodeINS_17__hash_value_typeIciEEPvEEEEEEEC1B8ue170006IiNS_18__default_init_tagEEEOT_OT0_, symObjAddr: 0x156C, symBinAddr: 0x100001CC8, symSize: 0x3C }
  - { offsetInCU: 0x1267C, offset: 0x1267C, size: 0x8, addend: 0x0, symName: __ZNSt3__117__compressed_pairImNS_9allocatorIPNS_16__hash_node_baseIPNS_11__hash_nodeINS_17__hash_value_typeIciEEPvEEEEEEEC2B8ue170006IiNS_18__default_init_tagEEEOT_OT0_, symObjAddr: 0x15A8, symBinAddr: 0x100001D04, symSize: 0x40 }
  - { offsetInCU: 0x126D3, offset: 0x126D3, size: 0x8, addend: 0x0, symName: __ZNSt3__122__compressed_pair_elemImLi0ELb0EEC2B8ue170006IivEEOT_, symObjAddr: 0x15E8, symBinAddr: 0x100001D44, symSize: 0x24 }
  - { offsetInCU: 0x12714, offset: 0x12714, size: 0x8, addend: 0x0, symName: __ZNSt3__122__compressed_pair_elemINS_9allocatorIPNS_16__hash_node_baseIPNS_11__hash_nodeINS_17__hash_value_typeIciEEPvEEEEEELi1ELb1EEC2B8ue170006ENS_18__default_init_tagE, symObjAddr: 0x160C, symBinAddr: 0x100001D68, symSize: 0x2C }
  - { offsetInCU: 0x12748, offset: 0x12748, size: 0x8, addend: 0x0, symName: __ZNSt3__19allocatorIPNS_16__hash_node_baseIPNS_11__hash_nodeINS_17__hash_value_typeIciEEPvEEEEEC2B8ue170006Ev, symObjAddr: 0x1638, symBinAddr: 0x100001D94, symSize: 0x2C }
  - { offsetInCU: 0x12771, offset: 0x12771, size: 0x8, addend: 0x0, symName: __ZNSt3__116__non_trivial_ifILb1ENS_9allocatorIPNS_16__hash_node_baseIPNS_11__hash_nodeINS_17__hash_value_typeIciEEPvEEEEEEEC2B8ue170006Ev, symObjAddr: 0x1664, symBinAddr: 0x100001DC0, symSize: 0x14 }
  - { offsetInCU: 0x1279A, offset: 0x1279A, size: 0x8, addend: 0x0, symName: __ZNSt3__117__compressed_pairINS_16__hash_node_baseIPNS_11__hash_nodeINS_17__hash_value_typeIciEEPvEEEENS_9allocatorIS6_EEEC2B8ue170006ILb1EvEEv, symObjAddr: 0x1678, symBinAddr: 0x100001DD4, symSize: 0x34 }
  - { offsetInCU: 0x127CE, offset: 0x127CE, size: 0x8, addend: 0x0, symName: __ZNSt3__122__compressed_pair_elemINS_16__hash_node_baseIPNS_11__hash_nodeINS_17__hash_value_typeIciEEPvEEEELi0ELb0EEC2B8ue170006ENS_16__value_init_tagE, symObjAddr: 0x16AC, symBinAddr: 0x100001E08, symSize: 0x2C }
  - { offsetInCU: 0x12802, offset: 0x12802, size: 0x8, addend: 0x0, symName: __ZNSt3__122__compressed_pair_elemINS_9allocatorINS_11__hash_nodeINS_17__hash_value_typeIciEEPvEEEELi1ELb1EEC2B8ue170006ENS_16__value_init_tagE, symObjAddr: 0x16D8, symBinAddr: 0x100001E34, symSize: 0x2C }
  - { offsetInCU: 0x12836, offset: 0x12836, size: 0x8, addend: 0x0, symName: __ZNSt3__116__hash_node_baseIPNS_11__hash_nodeINS_17__hash_value_typeIciEEPvEEEC1B8ue170006Ev, symObjAddr: 0x1704, symBinAddr: 0x100001E60, symSize: 0x2C }
  - { offsetInCU: 0x1285F, offset: 0x1285F, size: 0x8, addend: 0x0, symName: __ZNSt3__116__hash_node_baseIPNS_11__hash_nodeINS_17__hash_value_typeIciEEPvEEEC2B8ue170006Ev, symObjAddr: 0x1730, symBinAddr: 0x100001E8C, symSize: 0x18 }
  - { offsetInCU: 0x12888, offset: 0x12888, size: 0x8, addend: 0x0, symName: __ZNSt3__19allocatorINS_11__hash_nodeINS_17__hash_value_typeIciEEPvEEEC2B8ue170006Ev, symObjAddr: 0x1748, symBinAddr: 0x100001EA4, symSize: 0x2C }
  - { offsetInCU: 0x128B1, offset: 0x128B1, size: 0x8, addend: 0x0, symName: __ZNSt3__116__non_trivial_ifILb1ENS_9allocatorINS_11__hash_nodeINS_17__hash_value_typeIciEEPvEEEEEC2B8ue170006Ev, symObjAddr: 0x1774, symBinAddr: 0x100001ED0, symSize: 0x14 }
  - { offsetInCU: 0x128DA, offset: 0x128DA, size: 0x8, addend: 0x0, symName: __ZNSt3__117__compressed_pairImNS_22__unordered_map_hasherIcNS_17__hash_value_typeIciEENS_4hashIcEENS_8equal_toIcEELb1EEEEC2B8ue170006IiNS_18__default_init_tagEEEOT_OT0_, symObjAddr: 0x1788, symBinAddr: 0x100001EE4, symSize: 0x40 }
  - { offsetInCU: 0x12931, offset: 0x12931, size: 0x8, addend: 0x0, symName: __ZNSt3__122__compressed_pair_elemINS_22__unordered_map_hasherIcNS_17__hash_value_typeIciEENS_4hashIcEENS_8equal_toIcEELb1EEELi1ELb1EEC2B8ue170006ENS_18__default_init_tagE, symObjAddr: 0x17C8, symBinAddr: 0x100001F24, symSize: 0x2C }
  - { offsetInCU: 0x12965, offset: 0x12965, size: 0x8, addend: 0x0, symName: __ZNSt3__122__unordered_map_hasherIcNS_17__hash_value_typeIciEENS_4hashIcEENS_8equal_toIcEELb1EEC2B8ue170006Ev, symObjAddr: 0x17F4, symBinAddr: 0x100001F50, symSize: 0x14 }
  - { offsetInCU: 0x1298E, offset: 0x1298E, size: 0x8, addend: 0x0, symName: __ZNSt3__117__compressed_pairIfNS_21__unordered_map_equalIcNS_17__hash_value_typeIciEENS_8equal_toIcEENS_4hashIcEELb1EEEEC2B8ue170006IfNS_18__default_init_tagEEEOT_OT0_, symObjAddr: 0x1808, symBinAddr: 0x100001F64, symSize: 0x40 }
  - { offsetInCU: 0x129E5, offset: 0x129E5, size: 0x8, addend: 0x0, symName: __ZNSt3__122__compressed_pair_elemIfLi0ELb0EEC2B8ue170006IfvEEOT_, symObjAddr: 0x1848, symBinAddr: 0x100001FA4, symSize: 0x24 }
  - { offsetInCU: 0x12A26, offset: 0x12A26, size: 0x8, addend: 0x0, symName: __ZNSt3__122__compressed_pair_elemINS_21__unordered_map_equalIcNS_17__hash_value_typeIciEENS_8equal_toIcEENS_4hashIcEELb1EEELi1ELb1EEC2B8ue170006ENS_18__default_init_tagE, symObjAddr: 0x186C, symBinAddr: 0x100001FC8, symSize: 0x2C }
  - { offsetInCU: 0x12A5A, offset: 0x12A5A, size: 0x8, addend: 0x0, symName: __ZNSt3__121__unordered_map_equalIcNS_17__hash_value_typeIciEENS_8equal_toIcEENS_4hashIcEELb1EEC2B8ue170006Ev, symObjAddr: 0x1898, symBinAddr: 0x100001FF4, symSize: 0x14 }
  - { offsetInCU: 0x12A82, offset: 0x12A82, size: 0x8, addend: 0x0, symName: __ZNSt3__112__hash_tableINS_17__hash_value_typeIciEENS_22__unordered_map_hasherIcS2_NS_4hashIcEENS_8equal_toIcEELb1EEENS_21__unordered_map_equalIcS2_S7_S5_Lb1EEENS_9allocatorIS2_EEE4findIcEENS_15__hash_iteratorIPNS_11__hash_nodeIS2_PvEEEERKT_, symObjAddr: 0x18DC, symBinAddr: 0x100002038, symSize: 0x1B0 }
  - { offsetInCU: 0x12B0C, offset: 0x12B0C, size: 0x8, addend: 0x0, symName: __ZNSt3__119__hash_map_iteratorINS_15__hash_iteratorIPNS_11__hash_nodeINS_17__hash_value_typeIciEEPvEEEEEC1B8ue170006ES8_, symObjAddr: 0x1A8C, symBinAddr: 0x1000021E8, symSize: 0x34 }
  - { offsetInCU: 0x12B44, offset: 0x12B44, size: 0x8, addend: 0x0, symName: __ZNSt3__112__hash_tableINS_17__hash_value_typeIciEENS_22__unordered_map_hasherIcS2_NS_4hashIcEENS_8equal_toIcEELb1EEENS_21__unordered_map_equalIcS2_S7_S5_Lb1EEENS_9allocatorIS2_EEE13hash_functionB8ue170006Ev, symObjAddr: 0x1AC0, symBinAddr: 0x10000221C, symSize: 0x28 }
  - { offsetInCU: 0x12B69, offset: 0x12B69, size: 0x8, addend: 0x0, symName: __ZNKSt3__122__unordered_map_hasherIcNS_17__hash_value_typeIciEENS_4hashIcEENS_8equal_toIcEELb1EEclB8ue170006ERKc, symObjAddr: 0x1AE8, symBinAddr: 0x100002244, symSize: 0x30 }
  - { offsetInCU: 0x12B9D, offset: 0x12B9D, size: 0x8, addend: 0x0, symName: __ZNKSt3__112__hash_tableINS_17__hash_value_typeIciEENS_22__unordered_map_hasherIcS2_NS_4hashIcEENS_8equal_toIcEELb1EEENS_21__unordered_map_equalIcS2_S7_S5_Lb1EEENS_9allocatorIS2_EEE12bucket_countB8ue170006Ev, symObjAddr: 0x1B18, symBinAddr: 0x100002274, symSize: 0x28 }
  - { offsetInCU: 0x12BC2, offset: 0x12BC2, size: 0x8, addend: 0x0, symName: __ZNKSt3__110unique_ptrIA_PNS_16__hash_node_baseIPNS_11__hash_nodeINS_17__hash_value_typeIciEEPvEEEENS_25__bucket_list_deallocatorINS_9allocatorIS9_EEEEEixB8ue170006Em, symObjAddr: 0x1BD8, symBinAddr: 0x100002334, symSize: 0x34 }
  - { offsetInCU: 0x12BF6, offset: 0x12BF6, size: 0x8, addend: 0x0, symName: __ZNKSt3__116__hash_node_baseIPNS_11__hash_nodeINS_17__hash_value_typeIciEEPvEEE6__hashB8ue170006Ev, symObjAddr: 0x1C0C, symBinAddr: 0x100002368, symSize: 0x18 }
  - { offsetInCU: 0x12C1B, offset: 0x12C1B, size: 0x8, addend: 0x0, symName: __ZNSt3__112__hash_tableINS_17__hash_value_typeIciEENS_22__unordered_map_hasherIcS2_NS_4hashIcEENS_8equal_toIcEELb1EEENS_21__unordered_map_equalIcS2_S7_S5_Lb1EEENS_9allocatorIS2_EEE6key_eqB8ue170006Ev, symObjAddr: 0x1C24, symBinAddr: 0x100002380, symSize: 0x28 }
  - { offsetInCU: 0x12C40, offset: 0x12C40, size: 0x8, addend: 0x0, symName: __ZNKSt3__121__unordered_map_equalIcNS_17__hash_value_typeIciEENS_8equal_toIcEENS_4hashIcEELb1EEclB8ue170006ERKS2_RKc, symObjAddr: 0x1C4C, symBinAddr: 0x1000023A8, symSize: 0x48 }
  - { offsetInCU: 0x12C83, offset: 0x12C83, size: 0x8, addend: 0x0, symName: __ZNSt3__116__hash_node_baseIPNS_11__hash_nodeINS_17__hash_value_typeIciEEPvEEE8__upcastB8ue170006Ev, symObjAddr: 0x1C94, symBinAddr: 0x1000023F0, symSize: 0x24 }
  - { offsetInCU: 0x12CA8, offset: 0x12CA8, size: 0x8, addend: 0x0, symName: __ZNSt3__115__hash_iteratorIPNS_11__hash_nodeINS_17__hash_value_typeIciEEPvEEEC1B8ue170006EPNS_16__hash_node_baseIS6_EE, symObjAddr: 0x1CB8, symBinAddr: 0x100002414, symSize: 0x34 }
  - { offsetInCU: 0x12CDF, offset: 0x12CDF, size: 0x8, addend: 0x0, symName: __ZNSt3__112__hash_tableINS_17__hash_value_typeIciEENS_22__unordered_map_hasherIcS2_NS_4hashIcEENS_8equal_toIcEELb1EEENS_21__unordered_map_equalIcS2_S7_S5_Lb1EEENS_9allocatorIS2_EEE3endEv, symObjAddr: 0x1CEC, symBinAddr: 0x100002448, symSize: 0x2C }
  - { offsetInCU: 0x12D06, offset: 0x12D06, size: 0x8, addend: 0x0, symName: __ZNSt3__117__compressed_pairImNS_22__unordered_map_hasherIcNS_17__hash_value_typeIciEENS_4hashIcEENS_8equal_toIcEELb1EEEE6secondB8ue170006Ev, symObjAddr: 0x1D18, symBinAddr: 0x100002474, symSize: 0x24 }
  - { offsetInCU: 0x12D2B, offset: 0x12D2B, size: 0x8, addend: 0x0, symName: __ZNSt3__122__compressed_pair_elemINS_22__unordered_map_hasherIcNS_17__hash_value_typeIciEENS_4hashIcEENS_8equal_toIcEELb1EEELi1ELb1EE5__getB8ue170006Ev, symObjAddr: 0x1D3C, symBinAddr: 0x100002498, symSize: 0x14 }
  - { offsetInCU: 0x12D50, offset: 0x12D50, size: 0x8, addend: 0x0, symName: __ZNKSt3__14hashIcEclB8ue170006Ec, symObjAddr: 0x1D50, symBinAddr: 0x1000024AC, symSize: 0x18 }
  - { offsetInCU: 0x12D84, offset: 0x12D84, size: 0x8, addend: 0x0, symName: __ZNKSt3__110unique_ptrIA_PNS_16__hash_node_baseIPNS_11__hash_nodeINS_17__hash_value_typeIciEEPvEEEENS_25__bucket_list_deallocatorINS_9allocatorIS9_EEEEE11get_deleterB8ue170006Ev, symObjAddr: 0x1D68, symBinAddr: 0x1000024C4, symSize: 0x24 }
  - { offsetInCU: 0x12DA9, offset: 0x12DA9, size: 0x8, addend: 0x0, symName: __ZNKSt3__125__bucket_list_deallocatorINS_9allocatorIPNS_16__hash_node_baseIPNS_11__hash_nodeINS_17__hash_value_typeIciEEPvEEEEEEE4sizeB8ue170006Ev, symObjAddr: 0x1D8C, symBinAddr: 0x1000024E8, symSize: 0x28 }
  - { offsetInCU: 0x12DCE, offset: 0x12DCE, size: 0x8, addend: 0x0, symName: __ZNKSt3__117__compressed_pairIPPNS_16__hash_node_baseIPNS_11__hash_nodeINS_17__hash_value_typeIciEEPvEEEENS_25__bucket_list_deallocatorINS_9allocatorIS9_EEEEE6secondB8ue170006Ev, symObjAddr: 0x1DB4, symBinAddr: 0x100002510, symSize: 0x28 }
  - { offsetInCU: 0x12DF3, offset: 0x12DF3, size: 0x8, addend: 0x0, symName: __ZNKSt3__122__compressed_pair_elemINS_25__bucket_list_deallocatorINS_9allocatorIPNS_16__hash_node_baseIPNS_11__hash_nodeINS_17__hash_value_typeIciEEPvEEEEEEEELi1ELb0EE5__getB8ue170006Ev, symObjAddr: 0x1DDC, symBinAddr: 0x100002538, symSize: 0x14 }
  - { offsetInCU: 0x12E18, offset: 0x12E18, size: 0x8, addend: 0x0, symName: __ZNKSt3__117__compressed_pairImNS_9allocatorIPNS_16__hash_node_baseIPNS_11__hash_nodeINS_17__hash_value_typeIciEEPvEEEEEEE5firstB8ue170006Ev, symObjAddr: 0x1DF0, symBinAddr: 0x10000254C, symSize: 0x24 }
  - { offsetInCU: 0x12E3D, offset: 0x12E3D, size: 0x8, addend: 0x0, symName: __ZNKSt3__122__compressed_pair_elemImLi0ELb0EE5__getB8ue170006Ev, symObjAddr: 0x1E14, symBinAddr: 0x100002570, symSize: 0x14 }
  - { offsetInCU: 0x12E62, offset: 0x12E62, size: 0x8, addend: 0x0, symName: __ZNKSt3__117__compressed_pairIPPNS_16__hash_node_baseIPNS_11__hash_nodeINS_17__hash_value_typeIciEEPvEEEENS_25__bucket_list_deallocatorINS_9allocatorIS9_EEEEE5firstB8ue170006Ev, symObjAddr: 0x1E28, symBinAddr: 0x100002584, symSize: 0x24 }
  - { offsetInCU: 0x12E87, offset: 0x12E87, size: 0x8, addend: 0x0, symName: __ZNKSt3__122__compressed_pair_elemIPPNS_16__hash_node_baseIPNS_11__hash_nodeINS_17__hash_value_typeIciEEPvEEEELi0ELb0EE5__getB8ue170006Ev, symObjAddr: 0x1E4C, symBinAddr: 0x1000025A8, symSize: 0x14 }
  - { offsetInCU: 0x12EAC, offset: 0x12EAC, size: 0x8, addend: 0x0, symName: __ZNSt3__117__compressed_pairIfNS_21__unordered_map_equalIcNS_17__hash_value_typeIciEENS_8equal_toIcEENS_4hashIcEELb1EEEE6secondB8ue170006Ev, symObjAddr: 0x1E60, symBinAddr: 0x1000025BC, symSize: 0x24 }
  - { offsetInCU: 0x12ED1, offset: 0x12ED1, size: 0x8, addend: 0x0, symName: __ZNSt3__122__compressed_pair_elemINS_21__unordered_map_equalIcNS_17__hash_value_typeIciEENS_8equal_toIcEENS_4hashIcEELb1EEELi1ELb1EE5__getB8ue170006Ev, symObjAddr: 0x1E84, symBinAddr: 0x1000025E0, symSize: 0x14 }
  - { offsetInCU: 0x12EF6, offset: 0x12EF6, size: 0x8, addend: 0x0, symName: __ZNKSt3__18equal_toIcEclB8ue170006ERKcS3_, symObjAddr: 0x1E98, symBinAddr: 0x1000025F4, symSize: 0x34 }
  - { offsetInCU: 0x12F39, offset: 0x12F39, size: 0x8, addend: 0x0, symName: __ZNKSt3__117__hash_value_typeIciE11__get_valueB8ue170006Ev, symObjAddr: 0x1ECC, symBinAddr: 0x100002628, symSize: 0x14 }
  - { offsetInCU: 0x12F5E, offset: 0x12F5E, size: 0x8, addend: 0x0, symName: __ZNSt3__114pointer_traitsIPNS_16__hash_node_baseIPNS_11__hash_nodeINS_17__hash_value_typeIciEEPvEEEEE10pointer_toB8ue170006ERS8_, symObjAddr: 0x1EE0, symBinAddr: 0x10000263C, symSize: 0x14 }
  - { offsetInCU: 0x12F81, offset: 0x12F81, size: 0x8, addend: 0x0, symName: __ZNSt3__115__hash_iteratorIPNS_11__hash_nodeINS_17__hash_value_typeIciEEPvEEEC2B8ue170006EPNS_16__hash_node_baseIS6_EE, symObjAddr: 0x1EF4, symBinAddr: 0x100002650, symSize: 0x20 }
  - { offsetInCU: 0x12FB9, offset: 0x12FB9, size: 0x8, addend: 0x0, symName: __ZNSt3__119__hash_map_iteratorINS_15__hash_iteratorIPNS_11__hash_nodeINS_17__hash_value_typeIciEEPvEEEEEC2B8ue170006ES8_, symObjAddr: 0x1F14, symBinAddr: 0x100002670, symSize: 0x20 }
  - { offsetInCU: 0x12FF1, offset: 0x12FF1, size: 0x8, addend: 0x0, symName: __ZNSt3__112basic_stringIcNS_11char_traitsIcEENS_9allocatorIcEEE13__get_pointerB8ue170006Ev, symObjAddr: 0x1F34, symBinAddr: 0x100002690, symSize: 0x54 }
  - { offsetInCU: 0x13016, offset: 0x13016, size: 0x8, addend: 0x0, symName: __ZNSt3__112basic_stringIcNS_11char_traitsIcEENS_9allocatorIcEEE18__get_long_pointerB8ue170006Ev, symObjAddr: 0x1F88, symBinAddr: 0x1000026E4, symSize: 0x28 }
  - { offsetInCU: 0x1303B, offset: 0x1303B, size: 0x8, addend: 0x0, symName: __ZNSt3__112basic_stringIcNS_11char_traitsIcEENS_9allocatorIcEEE19__get_short_pointerB8ue170006Ev, symObjAddr: 0x1FB0, symBinAddr: 0x10000270C, symSize: 0x28 }
  - { offsetInCU: 0x13060, offset: 0x13060, size: 0x8, addend: 0x0, symName: __ZNSt3__117__compressed_pairINS_12basic_stringIcNS_11char_traitsIcEENS_9allocatorIcEEE5__repES5_E5firstB8ue170006Ev, symObjAddr: 0x1FD8, symBinAddr: 0x100002734, symSize: 0x24 }
  - { offsetInCU: 0x13085, offset: 0x13085, size: 0x8, addend: 0x0, symName: __ZNSt3__122__compressed_pair_elemINS_12basic_stringIcNS_11char_traitsIcEENS_9allocatorIcEEE5__repELi0ELb0EE5__getB8ue170006Ev, symObjAddr: 0x1FFC, symBinAddr: 0x100002758, symSize: 0x14 }
  - { offsetInCU: 0x130AA, offset: 0x130AA, size: 0x8, addend: 0x0, symName: __ZNSt3__114pointer_traitsIPcE10pointer_toB8ue170006ERc, symObjAddr: 0x2010, symBinAddr: 0x10000276C, symSize: 0x14 }
  - { offsetInCU: 0x130E0, offset: 0x130E0, size: 0x8, addend: 0x0, symName: __ZNSt3__112__hash_tableINS_17__hash_value_typeIciEENS_22__unordered_map_hasherIcS2_NS_4hashIcEENS_8equal_toIcEELb1EEENS_21__unordered_map_equalIcS2_S7_S5_Lb1EEENS_9allocatorIS2_EEE25__emplace_unique_key_argsIcJRKNS_21piecewise_construct_tENS_5tupleIJRKcEEENSI_IJEEEEEENS_4pairINS_15__hash_iteratorIPNS_11__hash_nodeIS2_PvEEEEbEERKT_DpOT0_, symObjAddr: 0x2024, symBinAddr: 0x100002780, symSize: 0x4B8 }
  - { offsetInCU: 0x131E9, offset: 0x131E9, size: 0x8, addend: 0x0, symName: __ZNKSt3__115__hash_iteratorIPNS_11__hash_nodeINS_17__hash_value_typeIciEEPvEEEptB8ue170006Ev, symObjAddr: 0x250C, symBinAddr: 0x100002C68, symSize: 0x30 }
  - { offsetInCU: 0x1320E, offset: 0x1320E, size: 0x8, addend: 0x0, symName: __ZNSt3__117__hash_value_typeIciE11__get_valueB8ue170006Ev, symObjAddr: 0x253C, symBinAddr: 0x100002C98, symSize: 0x14 }
  - { offsetInCU: 0x13232, offset: 0x13232, size: 0x8, addend: 0x0, symName: __ZNSt3__112__hash_tableINS_17__hash_value_typeIciEENS_22__unordered_map_hasherIcS2_NS_4hashIcEENS_8equal_toIcEELb1EEENS_21__unordered_map_equalIcS2_S7_S5_Lb1EEENS_9allocatorIS2_EEE21__construct_node_hashIRKNS_21piecewise_construct_tEJNS_5tupleIJRKcEEENSI_IJEEEEEENS_10unique_ptrINS_11__hash_nodeIS2_PvEENS_22__hash_node_destructorINSB_ISQ_EEEEEEmOT_DpOT0_, symObjAddr: 0x2550, symBinAddr: 0x100002CAC, symSize: 0x150 }
  - { offsetInCU: 0x132CD, offset: 0x132CD, size: 0x8, addend: 0x0, symName: __ZNSt3__112__hash_tableINS_17__hash_value_typeIciEENS_22__unordered_map_hasherIcS2_NS_4hashIcEENS_8equal_toIcEELb1EEENS_21__unordered_map_equalIcS2_S7_S5_Lb1EEENS_9allocatorIS2_EEE4sizeB8ue170006Ev, symObjAddr: 0x26A0, symBinAddr: 0x100002DFC, symSize: 0x28 }
  - { offsetInCU: 0x132F2, offset: 0x132F2, size: 0x8, addend: 0x0, symName: __ZNSt3__112__hash_tableINS_17__hash_value_typeIciEENS_22__unordered_map_hasherIcS2_NS_4hashIcEENS_8equal_toIcEELb1EEENS_21__unordered_map_equalIcS2_S7_S5_Lb1EEENS_9allocatorIS2_EEE15max_load_factorB8ue170006Ev, symObjAddr: 0x26C8, symBinAddr: 0x100002E24, symSize: 0x28 }
  - { offsetInCU: 0x13317, offset: 0x13317, size: 0x8, addend: 0x0, symName: __ZNSt3__112__hash_tableINS_17__hash_value_typeIciEENS_22__unordered_map_hasherIcS2_NS_4hashIcEENS_8equal_toIcEELb1EEENS_21__unordered_map_equalIcS2_S7_S5_Lb1EEENS_9allocatorIS2_EEE15__rehash_uniqueB8ue170006Em, symObjAddr: 0x26F0, symBinAddr: 0x100002E4C, symSize: 0x2C }
  - { offsetInCU: 0x1334A, offset: 0x1334A, size: 0x8, addend: 0x0, symName: __Z4ceilB8ue170006f, symObjAddr: 0x2798, symBinAddr: 0x100002EF4, symSize: 0x18 }
  - { offsetInCU: 0x13379, offset: 0x13379, size: 0x8, addend: 0x0, symName: __ZNSt3__117__compressed_pairINS_16__hash_node_baseIPNS_11__hash_nodeINS_17__hash_value_typeIciEEPvEEEENS_9allocatorIS6_EEE5firstB8ue170006Ev, symObjAddr: 0x27B0, symBinAddr: 0x100002F0C, symSize: 0x24 }
  - { offsetInCU: 0x1339E, offset: 0x1339E, size: 0x8, addend: 0x0, symName: __ZNSt3__116__hash_node_baseIPNS_11__hash_nodeINS_17__hash_value_typeIciEEPvEEE5__ptrB8ue170006Ev, symObjAddr: 0x27D4, symBinAddr: 0x100002F30, symSize: 0x24 }
  - { offsetInCU: 0x133C3, offset: 0x133C3, size: 0x8, addend: 0x0, symName: __ZNKSt3__110unique_ptrINS_11__hash_nodeINS_17__hash_value_typeIciEEPvEENS_22__hash_node_destructorINS_9allocatorIS5_EEEEEptB8ue170006Ev, symObjAddr: 0x27F8, symBinAddr: 0x100002F54, symSize: 0x28 }
  - { offsetInCU: 0x133E8, offset: 0x133E8, size: 0x8, addend: 0x0, symName: __ZNKSt3__110unique_ptrINS_11__hash_nodeINS_17__hash_value_typeIciEEPvEENS_22__hash_node_destructorINS_9allocatorIS5_EEEEE3getB8ue170006Ev, symObjAddr: 0x2820, symBinAddr: 0x100002F7C, symSize: 0x28 }
  - { offsetInCU: 0x1340D, offset: 0x1340D, size: 0x8, addend: 0x0, symName: __ZNSt3__110unique_ptrINS_11__hash_nodeINS_17__hash_value_typeIciEEPvEENS_22__hash_node_destructorINS_9allocatorIS5_EEEEE7releaseB8ue170006Ev, symObjAddr: 0x2848, symBinAddr: 0x100002FA4, symSize: 0x44 }
  - { offsetInCU: 0x13441, offset: 0x13441, size: 0x8, addend: 0x0, symName: __ZNSt3__110unique_ptrINS_11__hash_nodeINS_17__hash_value_typeIciEEPvEENS_22__hash_node_destructorINS_9allocatorIS5_EEEEED1B8ue170006Ev, symObjAddr: 0x288C, symBinAddr: 0x100002FE8, symSize: 0x2C }
  - { offsetInCU: 0x13474, offset: 0x13474, size: 0x8, addend: 0x0, symName: __ZNSt3__14pairINS_15__hash_iteratorIPNS_11__hash_nodeINS_17__hash_value_typeIciEEPvEEEEbEC1B8ue170006IS8_RbLS5_0EEEOT_OT0_, symObjAddr: 0x28B8, symBinAddr: 0x100003014, symSize: 0x3C }
  - { offsetInCU: 0x134D1, offset: 0x134D1, size: 0x8, addend: 0x0, symName: __ZNSt3__112__hash_tableINS_17__hash_value_typeIciEENS_22__unordered_map_hasherIcS2_NS_4hashIcEENS_8equal_toIcEELb1EEENS_21__unordered_map_equalIcS2_S7_S5_Lb1EEENS_9allocatorIS2_EEE12__node_allocB8ue170006Ev, symObjAddr: 0x28F4, symBinAddr: 0x100003050, symSize: 0x28 }
  - { offsetInCU: 0x134F6, offset: 0x134F6, size: 0x8, addend: 0x0, symName: __ZNSt3__116allocator_traitsINS_9allocatorINS_11__hash_nodeINS_17__hash_value_typeIciEEPvEEEEE8allocateB8ue170006ERS7_m, symObjAddr: 0x291C, symBinAddr: 0x100003078, symSize: 0x2C }
  - { offsetInCU: 0x13529, offset: 0x13529, size: 0x8, addend: 0x0, symName: __ZNSt3__122__hash_node_destructorINS_9allocatorINS_11__hash_nodeINS_17__hash_value_typeIciEEPvEEEEEC1B8ue170006ERS7_b, symObjAddr: 0x2948, symBinAddr: 0x1000030A4, symSize: 0x48 }
  - { offsetInCU: 0x13575, offset: 0x13575, size: 0x8, addend: 0x0, symName: __ZNSt3__110unique_ptrINS_11__hash_nodeINS_17__hash_value_typeIciEEPvEENS_22__hash_node_destructorINS_9allocatorIS5_EEEEEC1B8ue170006ILb1EvEEPS5_NS_16__dependent_typeINS_27__unique_ptr_deleter_sfinaeIS9_EEXT_EE20__good_rval_ref_typeE, symObjAddr: 0x2990, symBinAddr: 0x1000030EC, symSize: 0x3C }
  - { offsetInCU: 0x135C5, offset: 0x135C5, size: 0x8, addend: 0x0, symName: __ZNSt3__116allocator_traitsINS_9allocatorINS_11__hash_nodeINS_17__hash_value_typeIciEEPvEEEEE9constructB8ue170006INS_4pairIKciEEJRKNS_21piecewise_construct_tENS_5tupleIJRSB_EEENSG_IJEEEEvEEvRS7_PT_DpOT0_, symObjAddr: 0x29CC, symBinAddr: 0x100003128, symSize: 0x44 }
  - { offsetInCU: 0x13644, offset: 0x13644, size: 0x8, addend: 0x0, symName: __ZNSt3__122__hash_key_value_typesINS_17__hash_value_typeIciEEE9__get_ptrB8ue170006ERS2_, symObjAddr: 0x2A10, symBinAddr: 0x10000316C, symSize: 0x24 }
  - { offsetInCU: 0x13667, offset: 0x13667, size: 0x8, addend: 0x0, symName: __ZNSt3__110unique_ptrINS_11__hash_nodeINS_17__hash_value_typeIciEEPvEENS_22__hash_node_destructorINS_9allocatorIS5_EEEEE11get_deleterB8ue170006Ev, symObjAddr: 0x2A34, symBinAddr: 0x100003190, symSize: 0x24 }
  - { offsetInCU: 0x1368C, offset: 0x1368C, size: 0x8, addend: 0x0, symName: __ZNSt3__117__compressed_pairINS_16__hash_node_baseIPNS_11__hash_nodeINS_17__hash_value_typeIciEEPvEEEENS_9allocatorIS6_EEE6secondB8ue170006Ev, symObjAddr: 0x2A58, symBinAddr: 0x1000031B4, symSize: 0x24 }
  - { offsetInCU: 0x136B1, offset: 0x136B1, size: 0x8, addend: 0x0, symName: __ZNSt3__122__compressed_pair_elemINS_9allocatorINS_11__hash_nodeINS_17__hash_value_typeIciEEPvEEEELi1ELb1EE5__getB8ue170006Ev, symObjAddr: 0x2A7C, symBinAddr: 0x1000031D8, symSize: 0x14 }
  - { offsetInCU: 0x136D6, offset: 0x136D6, size: 0x8, addend: 0x0, symName: __ZNSt3__19allocatorINS_11__hash_nodeINS_17__hash_value_typeIciEEPvEEE8allocateB8ue170006Em, symObjAddr: 0x2A90, symBinAddr: 0x1000031EC, symSize: 0x5C }
  - { offsetInCU: 0x13713, offset: 0x13713, size: 0x8, addend: 0x0, symName: __ZNSt3__116allocator_traitsINS_9allocatorINS_11__hash_nodeINS_17__hash_value_typeIciEEPvEEEEE8max_sizeB8ue170006IS7_vEEmRKS7_, symObjAddr: 0x2AEC, symBinAddr: 0x100003248, symSize: 0x24 }
  - { offsetInCU: 0x13741, offset: 0x13741, size: 0x8, addend: 0x0, symName: __ZNKSt3__19allocatorINS_11__hash_nodeINS_17__hash_value_typeIciEEPvEEE8max_sizeB8ue170006Ev, symObjAddr: 0x2B6C, symBinAddr: 0x1000032C8, symSize: 0x18 }
  - { offsetInCU: 0x13766, offset: 0x13766, size: 0x8, addend: 0x0, symName: __ZNSt3__122__hash_node_destructorINS_9allocatorINS_11__hash_nodeINS_17__hash_value_typeIciEEPvEEEEEC2B8ue170006ERS7_b, symObjAddr: 0x2BA8, symBinAddr: 0x100003304, symSize: 0x38 }
  - { offsetInCU: 0x137AD, offset: 0x137AD, size: 0x8, addend: 0x0, symName: __ZNSt3__110unique_ptrINS_11__hash_nodeINS_17__hash_value_typeIciEEPvEENS_22__hash_node_destructorINS_9allocatorIS5_EEEEEC2B8ue170006ILb1EvEEPS5_NS_16__dependent_typeINS_27__unique_ptr_deleter_sfinaeIS9_EEXT_EE20__good_rval_ref_typeE, symObjAddr: 0x2BE0, symBinAddr: 0x10000333C, symSize: 0x48 }
  - { offsetInCU: 0x137FD, offset: 0x137FD, size: 0x8, addend: 0x0, symName: __ZNSt3__117__compressed_pairIPNS_11__hash_nodeINS_17__hash_value_typeIciEEPvEENS_22__hash_node_destructorINS_9allocatorIS5_EEEEEC1B8ue170006IRS6_SA_EEOT_OT0_, symObjAddr: 0x2C28, symBinAddr: 0x100003384, symSize: 0x3C }
  - { offsetInCU: 0x13854, offset: 0x13854, size: 0x8, addend: 0x0, symName: __ZNSt3__117__compressed_pairIPNS_11__hash_nodeINS_17__hash_value_typeIciEEPvEENS_22__hash_node_destructorINS_9allocatorIS5_EEEEEC2B8ue170006IRS6_SA_EEOT_OT0_, symObjAddr: 0x2C64, symBinAddr: 0x1000033C0, symSize: 0x48 }
  - { offsetInCU: 0x138AB, offset: 0x138AB, size: 0x8, addend: 0x0, symName: __ZNSt3__122__compressed_pair_elemIPNS_11__hash_nodeINS_17__hash_value_typeIciEEPvEELi0ELb0EEC2B8ue170006IRS6_vEEOT_, symObjAddr: 0x2CAC, symBinAddr: 0x100003408, symSize: 0x24 }
  - { offsetInCU: 0x138EC, offset: 0x138EC, size: 0x8, addend: 0x0, symName: __ZNSt3__122__compressed_pair_elemINS_22__hash_node_destructorINS_9allocatorINS_11__hash_nodeINS_17__hash_value_typeIciEEPvEEEEEELi1ELb0EEC2B8ue170006IS9_vEEOT_, symObjAddr: 0x2CD0, symBinAddr: 0x10000342C, symSize: 0x24 }
  - { offsetInCU: 0x1392D, offset: 0x1392D, size: 0x8, addend: 0x0, symName: __ZNSt3__19allocatorINS_11__hash_nodeINS_17__hash_value_typeIciEEPvEEE9constructB8ue170006INS_4pairIKciEEJRKNS_21piecewise_construct_tENS_5tupleIJRS9_EEENSE_IJEEEEEEvPT_DpOT0_, symObjAddr: 0x2CF4, symBinAddr: 0x100003450, symSize: 0x44 }
  - { offsetInCU: 0x139A8, offset: 0x139A8, size: 0x8, addend: 0x0, symName: __ZNSt3__14pairIKciEC1B8ue170006IJRS1_EJEEENS_21piecewise_construct_tENS_5tupleIJDpT_EEENS6_IJDpT0_EEE, symObjAddr: 0x2D38, symBinAddr: 0x100003494, symSize: 0x44 }
  - { offsetInCU: 0x13A0E, offset: 0x13A0E, size: 0x8, addend: 0x0, symName: __ZNSt3__14pairIKciEC1B8ue170006IJRS1_EJEJLm0EEJEEENS_21piecewise_construct_tERNS_5tupleIJDpT_EEERNS6_IJDpT0_EEENS_15__tuple_indicesIJXspT1_EEEENSF_IJXspT2_EEEE, symObjAddr: 0x2D7C, symBinAddr: 0x1000034D8, symSize: 0x3C }
  - { offsetInCU: 0x13A9A, offset: 0x13A9A, size: 0x8, addend: 0x0, symName: __ZNSt3__14pairIKciEC2B8ue170006IJRS1_EJEJLm0EEJEEENS_21piecewise_construct_tERNS_5tupleIJDpT_EEERNS6_IJDpT0_EEENS_15__tuple_indicesIJXspT1_EEEENSF_IJXspT2_EEEE, symObjAddr: 0x2DB8, symBinAddr: 0x100003514, symSize: 0x48 }
  - { offsetInCU: 0x13B26, offset: 0x13B26, size: 0x8, addend: 0x0, symName: __ZNSt3__112__tuple_leafILm0ERKcLb0EE3getB8ue170006Ev, symObjAddr: 0x2E24, symBinAddr: 0x100003580, symSize: 0x18 }
  - { offsetInCU: 0x13B4B, offset: 0x13B4B, size: 0x8, addend: 0x0, symName: __ZNSt3__117__compressed_pairIPNS_11__hash_nodeINS_17__hash_value_typeIciEEPvEENS_22__hash_node_destructorINS_9allocatorIS5_EEEEE6secondB8ue170006Ev, symObjAddr: 0x2E3C, symBinAddr: 0x100003598, symSize: 0x28 }
  - { offsetInCU: 0x13B70, offset: 0x13B70, size: 0x8, addend: 0x0, symName: __ZNSt3__122__compressed_pair_elemINS_22__hash_node_destructorINS_9allocatorINS_11__hash_nodeINS_17__hash_value_typeIciEEPvEEEEEELi1ELb0EE5__getB8ue170006Ev, symObjAddr: 0x2E64, symBinAddr: 0x1000035C0, symSize: 0x14 }
  - { offsetInCU: 0x13B95, offset: 0x13B95, size: 0x8, addend: 0x0, symName: __ZNSt3__117__compressed_pairImNS_22__unordered_map_hasherIcNS_17__hash_value_typeIciEENS_4hashIcEENS_8equal_toIcEELb1EEEE5firstB8ue170006Ev, symObjAddr: 0x2E78, symBinAddr: 0x1000035D4, symSize: 0x24 }
  - { offsetInCU: 0x13BBA, offset: 0x13BBA, size: 0x8, addend: 0x0, symName: __ZNSt3__122__compressed_pair_elemImLi0ELb0EE5__getB8ue170006Ev, symObjAddr: 0x2E9C, symBinAddr: 0x1000035F8, symSize: 0x14 }
  - { offsetInCU: 0x13BDF, offset: 0x13BDF, size: 0x8, addend: 0x0, symName: __ZNSt3__117__compressed_pairIfNS_21__unordered_map_equalIcNS_17__hash_value_typeIciEENS_8equal_toIcEENS_4hashIcEELb1EEEE5firstB8ue170006Ev, symObjAddr: 0x2EB0, symBinAddr: 0x10000360C, symSize: 0x24 }
  - { offsetInCU: 0x13C04, offset: 0x13C04, size: 0x8, addend: 0x0, symName: __ZNSt3__122__compressed_pair_elemIfLi0ELb0EE5__getB8ue170006Ev, symObjAddr: 0x2ED4, symBinAddr: 0x100003630, symSize: 0x14 }
  - { offsetInCU: 0x13C28, offset: 0x13C28, size: 0x8, addend: 0x0, symName: __ZNSt3__112__hash_tableINS_17__hash_value_typeIciEENS_22__unordered_map_hasherIcS2_NS_4hashIcEENS_8equal_toIcEELb1EEENS_21__unordered_map_equalIcS2_S7_S5_Lb1EEENS_9allocatorIS2_EEE8__rehashILb1EEEvm, symObjAddr: 0x2EE8, symBinAddr: 0x100003644, symSize: 0x1A8 }
  - { offsetInCU: 0x13C76, offset: 0x13C76, size: 0x8, addend: 0x0, symName: __ZNSt3__112__hash_tableINS_17__hash_value_typeIciEENS_22__unordered_map_hasherIcS2_NS_4hashIcEENS_8equal_toIcEELb1EEENS_21__unordered_map_equalIcS2_S7_S5_Lb1EEENS_9allocatorIS2_EEE11__do_rehashILb1EEEvm, symObjAddr: 0x3090, symBinAddr: 0x1000037EC, symSize: 0x288 }
  - { offsetInCU: 0x13D5C, offset: 0x13D5C, size: 0x8, addend: 0x0, symName: __ZNSt3__110unique_ptrIA_PNS_16__hash_node_baseIPNS_11__hash_nodeINS_17__hash_value_typeIciEEPvEEEENS_25__bucket_list_deallocatorINS_9allocatorIS9_EEEEE11get_deleterB8ue170006Ev, symObjAddr: 0x3384, symBinAddr: 0x100003AE0, symSize: 0x24 }
  - { offsetInCU: 0x13D81, offset: 0x13D81, size: 0x8, addend: 0x0, symName: __ZNSt3__125__bucket_list_deallocatorINS_9allocatorIPNS_16__hash_node_baseIPNS_11__hash_nodeINS_17__hash_value_typeIciEEPvEEEEEEE7__allocB8ue170006Ev, symObjAddr: 0x33A8, symBinAddr: 0x100003B04, symSize: 0x24 }
  - { offsetInCU: 0x13DA6, offset: 0x13DA6, size: 0x8, addend: 0x0, symName: __ZNSt3__110unique_ptrIA_PNS_16__hash_node_baseIPNS_11__hash_nodeINS_17__hash_value_typeIciEEPvEEEENS_25__bucket_list_deallocatorINS_9allocatorIS9_EEEEE5resetB8ue170006IPS9_EENS_9enable_ifIXsr28_CheckArrayPointerConversionIT_EE5valueEvE4typeESJ_, symObjAddr: 0x33CC, symBinAddr: 0x100003B28, symSize: 0x78 }
  - { offsetInCU: 0x13DF2, offset: 0x13DF2, size: 0x8, addend: 0x0, symName: __ZNSt3__116allocator_traitsINS_9allocatorIPNS_16__hash_node_baseIPNS_11__hash_nodeINS_17__hash_value_typeIciEEPvEEEEEEE8allocateB8ue170006ERSB_m, symObjAddr: 0x3444, symBinAddr: 0x100003BA0, symSize: 0x2C }
  - { offsetInCU: 0x13E25, offset: 0x13E25, size: 0x8, addend: 0x0, symName: __ZNSt3__125__bucket_list_deallocatorINS_9allocatorIPNS_16__hash_node_baseIPNS_11__hash_nodeINS_17__hash_value_typeIciEEPvEEEEEEE4sizeB8ue170006Ev, symObjAddr: 0x3470, symBinAddr: 0x100003BCC, symSize: 0x24 }
  - { offsetInCU: 0x13E4A, offset: 0x13E4A, size: 0x8, addend: 0x0, symName: __ZNSt3__117__compressed_pairIPPNS_16__hash_node_baseIPNS_11__hash_nodeINS_17__hash_value_typeIciEEPvEEEENS_25__bucket_list_deallocatorINS_9allocatorIS9_EEEEE6secondB8ue170006Ev, symObjAddr: 0x3494, symBinAddr: 0x100003BF0, symSize: 0x28 }
  - { offsetInCU: 0x13E6F, offset: 0x13E6F, size: 0x8, addend: 0x0, symName: __ZNSt3__122__compressed_pair_elemINS_25__bucket_list_deallocatorINS_9allocatorIPNS_16__hash_node_baseIPNS_11__hash_nodeINS_17__hash_value_typeIciEEPvEEEEEEEELi1ELb0EE5__getB8ue170006Ev, symObjAddr: 0x34BC, symBinAddr: 0x100003C18, symSize: 0x14 }
  - { offsetInCU: 0x13E94, offset: 0x13E94, size: 0x8, addend: 0x0, symName: __ZNSt3__117__compressed_pairImNS_9allocatorIPNS_16__hash_node_baseIPNS_11__hash_nodeINS_17__hash_value_typeIciEEPvEEEEEEE6secondB8ue170006Ev, symObjAddr: 0x34D0, symBinAddr: 0x100003C2C, symSize: 0x24 }
  - { offsetInCU: 0x13EB9, offset: 0x13EB9, size: 0x8, addend: 0x0, symName: __ZNSt3__122__compressed_pair_elemINS_9allocatorIPNS_16__hash_node_baseIPNS_11__hash_nodeINS_17__hash_value_typeIciEEPvEEEEEELi1ELb1EE5__getB8ue170006Ev, symObjAddr: 0x34F4, symBinAddr: 0x100003C50, symSize: 0x14 }
  - { offsetInCU: 0x13EDE, offset: 0x13EDE, size: 0x8, addend: 0x0, symName: __ZNSt3__117__compressed_pairIPPNS_16__hash_node_baseIPNS_11__hash_nodeINS_17__hash_value_typeIciEEPvEEEENS_25__bucket_list_deallocatorINS_9allocatorIS9_EEEEE5firstB8ue170006Ev, symObjAddr: 0x3508, symBinAddr: 0x100003C64, symSize: 0x24 }
  - { offsetInCU: 0x13F03, offset: 0x13F03, size: 0x8, addend: 0x0, symName: __ZNSt3__125__bucket_list_deallocatorINS_9allocatorIPNS_16__hash_node_baseIPNS_11__hash_nodeINS_17__hash_value_typeIciEEPvEEEEEEEclB8ue170006EPSA_, symObjAddr: 0x352C, symBinAddr: 0x100003C88, symSize: 0x58 }
  - { offsetInCU: 0x13F37, offset: 0x13F37, size: 0x8, addend: 0x0, symName: __ZNSt3__122__compressed_pair_elemIPPNS_16__hash_node_baseIPNS_11__hash_nodeINS_17__hash_value_typeIciEEPvEEEELi0ELb0EE5__getB8ue170006Ev, symObjAddr: 0x3584, symBinAddr: 0x100003CE0, symSize: 0x14 }
  - { offsetInCU: 0x13F5C, offset: 0x13F5C, size: 0x8, addend: 0x0, symName: __ZNSt3__116allocator_traitsINS_9allocatorIPNS_16__hash_node_baseIPNS_11__hash_nodeINS_17__hash_value_typeIciEEPvEEEEEEE10deallocateB8ue170006ERSB_PSA_m, symObjAddr: 0x3598, symBinAddr: 0x100003CF4, symSize: 0x34 }
  - { offsetInCU: 0x13F9E, offset: 0x13F9E, size: 0x8, addend: 0x0, symName: __ZNSt3__19allocatorIPNS_16__hash_node_baseIPNS_11__hash_nodeINS_17__hash_value_typeIciEEPvEEEEE10deallocateB8ue170006EPS9_m, symObjAddr: 0x35CC, symBinAddr: 0x100003D28, symSize: 0x40 }
  - { offsetInCU: 0x13FDF, offset: 0x13FDF, size: 0x8, addend: 0x0, symName: __ZNSt3__19allocatorIPNS_16__hash_node_baseIPNS_11__hash_nodeINS_17__hash_value_typeIciEEPvEEEEE8allocateB8ue170006Em, symObjAddr: 0x3688, symBinAddr: 0x100003DE4, symSize: 0x58 }
  - { offsetInCU: 0x1401C, offset: 0x1401C, size: 0x8, addend: 0x0, symName: __ZNSt3__116allocator_traitsINS_9allocatorIPNS_16__hash_node_baseIPNS_11__hash_nodeINS_17__hash_value_typeIciEEPvEEEEEEE8max_sizeB8ue170006ISB_vEEmRKSB_, symObjAddr: 0x36E0, symBinAddr: 0x100003E3C, symSize: 0x24 }
  - { offsetInCU: 0x1404A, offset: 0x1404A, size: 0x8, addend: 0x0, symName: __ZNKSt3__19allocatorIPNS_16__hash_node_baseIPNS_11__hash_nodeINS_17__hash_value_typeIciEEPvEEEEE8max_sizeB8ue170006Ev, symObjAddr: 0x3704, symBinAddr: 0x100003E60, symSize: 0x14 }
  - { offsetInCU: 0x1406F, offset: 0x1406F, size: 0x8, addend: 0x0, symName: __ZNSt3__117__compressed_pairImNS_9allocatorIPNS_16__hash_node_baseIPNS_11__hash_nodeINS_17__hash_value_typeIciEEPvEEEEEEE5firstB8ue170006Ev, symObjAddr: 0x3718, symBinAddr: 0x100003E74, symSize: 0x24 }
  - { offsetInCU: 0x1409E, offset: 0x1409E, size: 0x8, addend: 0x0, symName: __ZNKSt3__16__lessIvvEclB8ue170006ImmEEbRKT_RKT0_, symObjAddr: 0x37AC, symBinAddr: 0x100003F08, symSize: 0x34 }
  - { offsetInCU: 0x140F1, offset: 0x140F1, size: 0x8, addend: 0x0, symName: __ZNSt3__122__compressed_pair_elemINS_16__hash_node_baseIPNS_11__hash_nodeINS_17__hash_value_typeIciEEPvEEEELi0ELb0EE5__getB8ue170006Ev, symObjAddr: 0x37E0, symBinAddr: 0x100003F3C, symSize: 0x14 }
  - { offsetInCU: 0x14116, offset: 0x14116, size: 0x8, addend: 0x0, symName: __ZNKSt3__117__compressed_pairIPNS_11__hash_nodeINS_17__hash_value_typeIciEEPvEENS_22__hash_node_destructorINS_9allocatorIS5_EEEEE5firstB8ue170006Ev, symObjAddr: 0x37F4, symBinAddr: 0x100003F50, symSize: 0x24 }
  - { offsetInCU: 0x1413B, offset: 0x1413B, size: 0x8, addend: 0x0, symName: __ZNKSt3__122__compressed_pair_elemIPNS_11__hash_nodeINS_17__hash_value_typeIciEEPvEELi0ELb0EE5__getB8ue170006Ev, symObjAddr: 0x3818, symBinAddr: 0x100003F74, symSize: 0x14 }
  - { offsetInCU: 0x14160, offset: 0x14160, size: 0x8, addend: 0x0, symName: __ZNSt3__117__compressed_pairIPNS_11__hash_nodeINS_17__hash_value_typeIciEEPvEENS_22__hash_node_destructorINS_9allocatorIS5_EEEEE5firstB8ue170006Ev, symObjAddr: 0x382C, symBinAddr: 0x100003F88, symSize: 0x24 }
  - { offsetInCU: 0x14185, offset: 0x14185, size: 0x8, addend: 0x0, symName: __ZNSt3__122__compressed_pair_elemIPNS_11__hash_nodeINS_17__hash_value_typeIciEEPvEELi0ELb0EE5__getB8ue170006Ev, symObjAddr: 0x3850, symBinAddr: 0x100003FAC, symSize: 0x14 }
  - { offsetInCU: 0x141AA, offset: 0x141AA, size: 0x8, addend: 0x0, symName: __ZNSt3__110unique_ptrINS_11__hash_nodeINS_17__hash_value_typeIciEEPvEENS_22__hash_node_destructorINS_9allocatorIS5_EEEEED2B8ue170006Ev, symObjAddr: 0x3864, symBinAddr: 0x100003FC0, symSize: 0x30 }
  - { offsetInCU: 0x141D3, offset: 0x141D3, size: 0x8, addend: 0x0, symName: __ZNSt3__110unique_ptrINS_11__hash_nodeINS_17__hash_value_typeIciEEPvEENS_22__hash_node_destructorINS_9allocatorIS5_EEEEE5resetB8ue170006EPS5_, symObjAddr: 0x3894, symBinAddr: 0x100003FF0, symSize: 0x78 }
  - { offsetInCU: 0x14216, offset: 0x14216, size: 0x8, addend: 0x0, symName: __ZNSt3__122__hash_node_destructorINS_9allocatorINS_11__hash_nodeINS_17__hash_value_typeIciEEPvEEEEEclB8ue170006EPS6_, symObjAddr: 0x390C, symBinAddr: 0x100004068, symSize: 0x98 }
  - { offsetInCU: 0x1424A, offset: 0x1424A, size: 0x8, addend: 0x0, symName: __ZNSt3__116allocator_traitsINS_9allocatorINS_11__hash_nodeINS_17__hash_value_typeIciEEPvEEEEE7destroyB8ue170006INS_4pairIKciEEvvEEvRS7_PT_, symObjAddr: 0x39A4, symBinAddr: 0x100004100, symSize: 0x14 }
  - { offsetInCU: 0x14284, offset: 0x14284, size: 0x8, addend: 0x0, symName: __ZNSt3__116allocator_traitsINS_9allocatorINS_11__hash_nodeINS_17__hash_value_typeIciEEPvEEEEE10deallocateB8ue170006ERS7_PS6_m, symObjAddr: 0x39B8, symBinAddr: 0x100004114, symSize: 0x34 }
  - { offsetInCU: 0x142C6, offset: 0x142C6, size: 0x8, addend: 0x0, symName: __ZNSt3__19allocatorINS_11__hash_nodeINS_17__hash_value_typeIciEEPvEEE10deallocateB8ue170006EPS5_m, symObjAddr: 0x39EC, symBinAddr: 0x100004148, symSize: 0x44 }
  - { offsetInCU: 0x14307, offset: 0x14307, size: 0x8, addend: 0x0, symName: __ZNSt3__14pairINS_15__hash_iteratorIPNS_11__hash_nodeINS_17__hash_value_typeIciEEPvEEEEbEC2B8ue170006IS8_RbLS5_0EEEOT_OT0_, symObjAddr: 0x3A30, symBinAddr: 0x10000418C, symSize: 0x38 }
  - { offsetInCU: 0x14364, offset: 0x14364, size: 0x8, addend: 0x0, symName: __ZNSt3__15tupleIJRKcEEC1B8ue170006INS_4_AndELi0EEES2_, symObjAddr: 0x3A68, symBinAddr: 0x1000041C4, symSize: 0x34 }
  - { offsetInCU: 0x143AB, offset: 0x143AB, size: 0x8, addend: 0x0, symName: __ZNSt3__15tupleIJRKcEEC2B8ue170006INS_4_AndELi0EEES2_, symObjAddr: 0x3A9C, symBinAddr: 0x1000041F8, symSize: 0x34 }
  - { offsetInCU: 0x143F2, offset: 0x143F2, size: 0x8, addend: 0x0, symName: __ZNSt3__112__tuple_implINS_15__tuple_indicesIJLm0EEEEJRKcEEC1B8ue170006IJLm0EEJS4_EJEJEJS4_EEENS1_IJXspT_EEEENS_13__tuple_typesIJDpT0_EEENS1_IJXspT1_EEEENS8_IJDpT2_EEEDpOT3_, symObjAddr: 0x3AD0, symBinAddr: 0x10000422C, symSize: 0x34 }
  - { offsetInCU: 0x14482, offset: 0x14482, size: 0x8, addend: 0x0, symName: __ZNSt3__112__tuple_implINS_15__tuple_indicesIJLm0EEEEJRKcEEC2B8ue170006IJLm0EEJS4_EJEJEJS4_EEENS1_IJXspT_EEEENS_13__tuple_typesIJDpT0_EEENS1_IJXspT1_EEEENS8_IJDpT2_EEEDpOT3_, symObjAddr: 0x3B04, symBinAddr: 0x100004260, symSize: 0x34 }
  - { offsetInCU: 0x14512, offset: 0x14512, size: 0x8, addend: 0x0, symName: __ZNSt3__112__tuple_leafILm0ERKcLb0EEC2B8ue170006IS2_vEEOT_, symObjAddr: 0x3B38, symBinAddr: 0x100004294, symSize: 0x20 }
  - { offsetInCU: 0x14554, offset: 0x14554, size: 0x8, addend: 0x0, symName: __ZNSt3__114pointer_traitsIPNS_17__hash_value_typeIciEEE10pointer_toB8ue170006ERS2_, symObjAddr: 0x3B58, symBinAddr: 0x1000042B4, symSize: 0x14 }
  - { offsetInCU: 0x14577, offset: 0x14577, size: 0x8, addend: 0x0, symName: __ZNSt3__112basic_stringIcNS_11char_traitsIcEENS_9allocatorIcEEE15__make_iteratorB8ue170006EPc, symObjAddr: 0x3B6C, symBinAddr: 0x1000042C8, symSize: 0x30 }
  - { offsetInCU: 0x145AB, offset: 0x145AB, size: 0x8, addend: 0x0, symName: __ZNSt3__111__wrap_iterIPcEC1B8ue170006ES1_, symObjAddr: 0x3B9C, symBinAddr: 0x1000042F8, symSize: 0x34 }
  - { offsetInCU: 0x145E2, offset: 0x145E2, size: 0x8, addend: 0x0, symName: __ZNSt3__111__wrap_iterIPcEC2B8ue170006ES1_, symObjAddr: 0x3BD0, symBinAddr: 0x10000432C, symSize: 0x20 }
  - { offsetInCU: 0x14619, offset: 0x14619, size: 0x8, addend: 0x0, symName: __ZNSt3__113unordered_setIcNS_4hashIcEENS_8equal_toIcEENS_9allocatorIcEEEC2INS_11__wrap_iterIPcEEEET_SC_, symObjAddr: 0x3BF0, symBinAddr: 0x10000434C, symSize: 0x7C }
  - { offsetInCU: 0x1466B, offset: 0x1466B, size: 0x8, addend: 0x0, symName: __ZNSt3__112__hash_tableIcNS_4hashIcEENS_8equal_toIcEENS_9allocatorIcEEEC1Ev, symObjAddr: 0x3C6C, symBinAddr: 0x1000043C8, symSize: 0x2C }
  - { offsetInCU: 0x14695, offset: 0x14695, size: 0x8, addend: 0x0, symName: __ZNSt3__113unordered_setIcNS_4hashIcEENS_8equal_toIcEENS_9allocatorIcEEE6insertINS_11__wrap_iterIPcEEEEvT_SC_, symObjAddr: 0x3C98, symBinAddr: 0x1000043F4, symSize: 0x70 }
  - { offsetInCU: 0x146E3, offset: 0x146E3, size: 0x8, addend: 0x0, symName: __ZNSt3__112__hash_tableIcNS_4hashIcEENS_8equal_toIcEENS_9allocatorIcEEED1Ev, symObjAddr: 0x3D08, symBinAddr: 0x100004464, symSize: 0x2C }
  - { offsetInCU: 0x1470E, offset: 0x1470E, size: 0x8, addend: 0x0, symName: __ZNSt3__112__hash_tableIcNS_4hashIcEENS_8equal_toIcEENS_9allocatorIcEEEC2Ev, symObjAddr: 0x3D34, symBinAddr: 0x100004490, symSize: 0x7C }
  - { offsetInCU: 0x14739, offset: 0x14739, size: 0x8, addend: 0x0, symName: __ZNSt3__110unique_ptrIA_PNS_16__hash_node_baseIPNS_11__hash_nodeIcPvEEEENS_25__bucket_list_deallocatorINS_9allocatorIS7_EEEEEC1B8ue170006ILb1EvEEv, symObjAddr: 0x3DB0, symBinAddr: 0x10000450C, symSize: 0x2C }
  - { offsetInCU: 0x1476D, offset: 0x1476D, size: 0x8, addend: 0x0, symName: __ZNSt3__117__compressed_pairINS_16__hash_node_baseIPNS_11__hash_nodeIcPvEEEENS_9allocatorIS4_EEEC1B8ue170006ILb1EvEEv, symObjAddr: 0x3DDC, symBinAddr: 0x100004538, symSize: 0x2C }
  - { offsetInCU: 0x147A1, offset: 0x147A1, size: 0x8, addend: 0x0, symName: __ZNSt3__117__compressed_pairImNS_4hashIcEEEC1B8ue170006IiNS_18__default_init_tagEEEOT_OT0_, symObjAddr: 0x3E08, symBinAddr: 0x100004564, symSize: 0x3C }
  - { offsetInCU: 0x147F8, offset: 0x147F8, size: 0x8, addend: 0x0, symName: __ZNSt3__117__compressed_pairIfNS_8equal_toIcEEEC1B8ue170006IfNS_18__default_init_tagEEEOT_OT0_, symObjAddr: 0x3E44, symBinAddr: 0x1000045A0, symSize: 0x3C }
  - { offsetInCU: 0x1484F, offset: 0x1484F, size: 0x8, addend: 0x0, symName: __ZNSt3__110unique_ptrIA_PNS_16__hash_node_baseIPNS_11__hash_nodeIcPvEEEENS_25__bucket_list_deallocatorINS_9allocatorIS7_EEEEEC2B8ue170006ILb1EvEEv, symObjAddr: 0x3E80, symBinAddr: 0x1000045DC, symSize: 0x3C }
  - { offsetInCU: 0x14883, offset: 0x14883, size: 0x8, addend: 0x0, symName: __ZNSt3__117__compressed_pairIPPNS_16__hash_node_baseIPNS_11__hash_nodeIcPvEEEENS_25__bucket_list_deallocatorINS_9allocatorIS7_EEEEEC1B8ue170006INS_16__value_init_tagESF_EEOT_OT0_, symObjAddr: 0x3EBC, symBinAddr: 0x100004618, symSize: 0x3C }
  - { offsetInCU: 0x148DA, offset: 0x148DA, size: 0x8, addend: 0x0, symName: __ZNSt3__117__compressed_pairIPPNS_16__hash_node_baseIPNS_11__hash_nodeIcPvEEEENS_25__bucket_list_deallocatorINS_9allocatorIS7_EEEEEC2B8ue170006INS_16__value_init_tagESF_EEOT_OT0_, symObjAddr: 0x3EF8, symBinAddr: 0x100004654, symSize: 0x40 }
  - { offsetInCU: 0x14931, offset: 0x14931, size: 0x8, addend: 0x0, symName: __ZNSt3__122__compressed_pair_elemIPPNS_16__hash_node_baseIPNS_11__hash_nodeIcPvEEEELi0ELb0EEC2B8ue170006ENS_16__value_init_tagE, symObjAddr: 0x3F38, symBinAddr: 0x100004694, symSize: 0x18 }
  - { offsetInCU: 0x14965, offset: 0x14965, size: 0x8, addend: 0x0, symName: __ZNSt3__122__compressed_pair_elemINS_25__bucket_list_deallocatorINS_9allocatorIPNS_16__hash_node_baseIPNS_11__hash_nodeIcPvEEEEEEEELi1ELb0EEC2B8ue170006ENS_16__value_init_tagE, symObjAddr: 0x3F50, symBinAddr: 0x1000046AC, symSize: 0x2C }
  - { offsetInCU: 0x14999, offset: 0x14999, size: 0x8, addend: 0x0, symName: __ZNSt3__125__bucket_list_deallocatorINS_9allocatorIPNS_16__hash_node_baseIPNS_11__hash_nodeIcPvEEEEEEEC1B8ue170006Ev, symObjAddr: 0x3F7C, symBinAddr: 0x1000046D8, symSize: 0x2C }
  - { offsetInCU: 0x149C2, offset: 0x149C2, size: 0x8, addend: 0x0, symName: __ZNSt3__125__bucket_list_deallocatorINS_9allocatorIPNS_16__hash_node_baseIPNS_11__hash_nodeIcPvEEEEEEEC2B8ue170006Ev, symObjAddr: 0x3FA8, symBinAddr: 0x100004704, symSize: 0x40 }
  - { offsetInCU: 0x149EB, offset: 0x149EB, size: 0x8, addend: 0x0, symName: __ZNSt3__117__compressed_pairImNS_9allocatorIPNS_16__hash_node_baseIPNS_11__hash_nodeIcPvEEEEEEEC1B8ue170006IiNS_18__default_init_tagEEEOT_OT0_, symObjAddr: 0x3FE8, symBinAddr: 0x100004744, symSize: 0x3C }
  - { offsetInCU: 0x14A42, offset: 0x14A42, size: 0x8, addend: 0x0, symName: __ZNSt3__117__compressed_pairImNS_9allocatorIPNS_16__hash_node_baseIPNS_11__hash_nodeIcPvEEEEEEEC2B8ue170006IiNS_18__default_init_tagEEEOT_OT0_, symObjAddr: 0x4024, symBinAddr: 0x100004780, symSize: 0x40 }
  - { offsetInCU: 0x14A99, offset: 0x14A99, size: 0x8, addend: 0x0, symName: __ZNSt3__122__compressed_pair_elemINS_9allocatorIPNS_16__hash_node_baseIPNS_11__hash_nodeIcPvEEEEEELi1ELb1EEC2B8ue170006ENS_18__default_init_tagE, symObjAddr: 0x4064, symBinAddr: 0x1000047C0, symSize: 0x2C }
  - { offsetInCU: 0x14ACD, offset: 0x14ACD, size: 0x8, addend: 0x0, symName: __ZNSt3__19allocatorIPNS_16__hash_node_baseIPNS_11__hash_nodeIcPvEEEEEC2B8ue170006Ev, symObjAddr: 0x4090, symBinAddr: 0x1000047EC, symSize: 0x2C }
  - { offsetInCU: 0x14AF6, offset: 0x14AF6, size: 0x8, addend: 0x0, symName: __ZNSt3__116__non_trivial_ifILb1ENS_9allocatorIPNS_16__hash_node_baseIPNS_11__hash_nodeIcPvEEEEEEEC2B8ue170006Ev, symObjAddr: 0x40BC, symBinAddr: 0x100004818, symSize: 0x14 }
  - { offsetInCU: 0x14B1F, offset: 0x14B1F, size: 0x8, addend: 0x0, symName: __ZNSt3__117__compressed_pairINS_16__hash_node_baseIPNS_11__hash_nodeIcPvEEEENS_9allocatorIS4_EEEC2B8ue170006ILb1EvEEv, symObjAddr: 0x40D0, symBinAddr: 0x10000482C, symSize: 0x34 }
  - { offsetInCU: 0x14B53, offset: 0x14B53, size: 0x8, addend: 0x0, symName: __ZNSt3__122__compressed_pair_elemINS_16__hash_node_baseIPNS_11__hash_nodeIcPvEEEELi0ELb0EEC2B8ue170006ENS_16__value_init_tagE, symObjAddr: 0x4104, symBinAddr: 0x100004860, symSize: 0x2C }
  - { offsetInCU: 0x14B87, offset: 0x14B87, size: 0x8, addend: 0x0, symName: __ZNSt3__122__compressed_pair_elemINS_9allocatorINS_11__hash_nodeIcPvEEEELi1ELb1EEC2B8ue170006ENS_16__value_init_tagE, symObjAddr: 0x4130, symBinAddr: 0x10000488C, symSize: 0x2C }
  - { offsetInCU: 0x14BBB, offset: 0x14BBB, size: 0x8, addend: 0x0, symName: __ZNSt3__116__hash_node_baseIPNS_11__hash_nodeIcPvEEEC1B8ue170006Ev, symObjAddr: 0x415C, symBinAddr: 0x1000048B8, symSize: 0x2C }
  - { offsetInCU: 0x14BE4, offset: 0x14BE4, size: 0x8, addend: 0x0, symName: __ZNSt3__116__hash_node_baseIPNS_11__hash_nodeIcPvEEEC2B8ue170006Ev, symObjAddr: 0x4188, symBinAddr: 0x1000048E4, symSize: 0x18 }
  - { offsetInCU: 0x14C0D, offset: 0x14C0D, size: 0x8, addend: 0x0, symName: __ZNSt3__19allocatorINS_11__hash_nodeIcPvEEEC2B8ue170006Ev, symObjAddr: 0x41A0, symBinAddr: 0x1000048FC, symSize: 0x2C }
  - { offsetInCU: 0x14C36, offset: 0x14C36, size: 0x8, addend: 0x0, symName: __ZNSt3__116__non_trivial_ifILb1ENS_9allocatorINS_11__hash_nodeIcPvEEEEEC2B8ue170006Ev, symObjAddr: 0x41CC, symBinAddr: 0x100004928, symSize: 0x14 }
  - { offsetInCU: 0x14C5F, offset: 0x14C5F, size: 0x8, addend: 0x0, symName: __ZNSt3__117__compressed_pairImNS_4hashIcEEEC2B8ue170006IiNS_18__default_init_tagEEEOT_OT0_, symObjAddr: 0x41E0, symBinAddr: 0x10000493C, symSize: 0x40 }
  - { offsetInCU: 0x14CB6, offset: 0x14CB6, size: 0x8, addend: 0x0, symName: __ZNSt3__122__compressed_pair_elemINS_4hashIcEELi1ELb1EEC2B8ue170006ENS_18__default_init_tagE, symObjAddr: 0x4220, symBinAddr: 0x10000497C, symSize: 0x14 }
  - { offsetInCU: 0x14CEA, offset: 0x14CEA, size: 0x8, addend: 0x0, symName: __ZNSt3__117__compressed_pairIfNS_8equal_toIcEEEC2B8ue170006IfNS_18__default_init_tagEEEOT_OT0_, symObjAddr: 0x4234, symBinAddr: 0x100004990, symSize: 0x40 }
  - { offsetInCU: 0x14D41, offset: 0x14D41, size: 0x8, addend: 0x0, symName: __ZNSt3__122__compressed_pair_elemINS_8equal_toIcEELi1ELb1EEC2B8ue170006ENS_18__default_init_tagE, symObjAddr: 0x4274, symBinAddr: 0x1000049D0, symSize: 0x14 }
  - { offsetInCU: 0x14D75, offset: 0x14D75, size: 0x8, addend: 0x0, symName: __ZNSt3__112__hash_tableIcNS_4hashIcEENS_8equal_toIcEENS_9allocatorIcEEE15__insert_uniqueB8ue170006ERKc, symObjAddr: 0x42BC, symBinAddr: 0x100004A18, symSize: 0x50 }
  - { offsetInCU: 0x14DA9, offset: 0x14DA9, size: 0x8, addend: 0x0, symName: __ZNKSt3__111__wrap_iterIPcEdeB8ue170006Ev, symObjAddr: 0x430C, symBinAddr: 0x100004A68, symSize: 0x18 }
  - { offsetInCU: 0x14DCE, offset: 0x14DCE, size: 0x8, addend: 0x0, symName: __ZNSt3__111__wrap_iterIPcEppB8ue170006Ev, symObjAddr: 0x4324, symBinAddr: 0x100004A80, symSize: 0x20 }
  - { offsetInCU: 0x14DF3, offset: 0x14DF3, size: 0x8, addend: 0x0, symName: __ZNKSt3__111__wrap_iterIPcE4baseB8ue170006Ev, symObjAddr: 0x438C, symBinAddr: 0x100004AE8, symSize: 0x18 }
  - { offsetInCU: 0x14E17, offset: 0x14E17, size: 0x8, addend: 0x0, symName: __ZNSt3__112__hash_tableIcNS_4hashIcEENS_8equal_toIcEENS_9allocatorIcEEE25__emplace_unique_key_argsIcJRKcEEENS_4pairINS_15__hash_iteratorIPNS_11__hash_nodeIcPvEEEEbEERKT_DpOT0_, symObjAddr: 0x43A4, symBinAddr: 0x100004B00, symSize: 0x4C0 }
  - { offsetInCU: 0x14EF6, offset: 0x14EF6, size: 0x8, addend: 0x0, symName: __ZNSt3__122__hash_key_value_typesIcE9__get_keyB8ue170006ERKc, symObjAddr: 0x4864, symBinAddr: 0x100004FC0, symSize: 0x14 }
  - { offsetInCU: 0x14F19, offset: 0x14F19, size: 0x8, addend: 0x0, symName: __ZNSt3__112__hash_tableIcNS_4hashIcEENS_8equal_toIcEENS_9allocatorIcEEE13hash_functionB8ue170006Ev, symObjAddr: 0x4878, symBinAddr: 0x100004FD4, symSize: 0x28 }
  - { offsetInCU: 0x14F3E, offset: 0x14F3E, size: 0x8, addend: 0x0, symName: __ZNKSt3__112__hash_tableIcNS_4hashIcEENS_8equal_toIcEENS_9allocatorIcEEE12bucket_countB8ue170006Ev, symObjAddr: 0x48A0, symBinAddr: 0x100004FFC, symSize: 0x28 }
  - { offsetInCU: 0x14F63, offset: 0x14F63, size: 0x8, addend: 0x0, symName: __ZNKSt3__110unique_ptrIA_PNS_16__hash_node_baseIPNS_11__hash_nodeIcPvEEEENS_25__bucket_list_deallocatorINS_9allocatorIS7_EEEEEixB8ue170006Em, symObjAddr: 0x48C8, symBinAddr: 0x100005024, symSize: 0x34 }
  - { offsetInCU: 0x14F97, offset: 0x14F97, size: 0x8, addend: 0x0, symName: __ZNKSt3__116__hash_node_baseIPNS_11__hash_nodeIcPvEEE6__hashB8ue170006Ev, symObjAddr: 0x48FC, symBinAddr: 0x100005058, symSize: 0x18 }
  - { offsetInCU: 0x14FBC, offset: 0x14FBC, size: 0x8, addend: 0x0, symName: __ZNSt3__112__hash_tableIcNS_4hashIcEENS_8equal_toIcEENS_9allocatorIcEEE6key_eqB8ue170006Ev, symObjAddr: 0x4914, symBinAddr: 0x100005070, symSize: 0x28 }
  - { offsetInCU: 0x14FE1, offset: 0x14FE1, size: 0x8, addend: 0x0, symName: __ZNSt3__116__hash_node_baseIPNS_11__hash_nodeIcPvEEE8__upcastB8ue170006Ev, symObjAddr: 0x493C, symBinAddr: 0x100005098, symSize: 0x24 }
  - { offsetInCU: 0x15005, offset: 0x15005, size: 0x8, addend: 0x0, symName: __ZNSt3__112__hash_tableIcNS_4hashIcEENS_8equal_toIcEENS_9allocatorIcEEE21__construct_node_hashIRKcJEEENS_10unique_ptrINS_11__hash_nodeIcPvEENS_22__hash_node_destructorINS5_ISE_EEEEEEmOT_DpOT0_, symObjAddr: 0x4960, symBinAddr: 0x1000050BC, symSize: 0x140 }
  - { offsetInCU: 0x15077, offset: 0x15077, size: 0x8, addend: 0x0, symName: __ZNSt3__112__hash_tableIcNS_4hashIcEENS_8equal_toIcEENS_9allocatorIcEEE4sizeB8ue170006Ev, symObjAddr: 0x4AA0, symBinAddr: 0x1000051FC, symSize: 0x28 }
  - { offsetInCU: 0x1509C, offset: 0x1509C, size: 0x8, addend: 0x0, symName: __ZNSt3__112__hash_tableIcNS_4hashIcEENS_8equal_toIcEENS_9allocatorIcEEE15max_load_factorB8ue170006Ev, symObjAddr: 0x4AC8, symBinAddr: 0x100005224, symSize: 0x28 }
  - { offsetInCU: 0x150C1, offset: 0x150C1, size: 0x8, addend: 0x0, symName: __ZNSt3__112__hash_tableIcNS_4hashIcEENS_8equal_toIcEENS_9allocatorIcEEE15__rehash_uniqueB8ue170006Em, symObjAddr: 0x4AF0, symBinAddr: 0x10000524C, symSize: 0x2C }
  - { offsetInCU: 0x150F5, offset: 0x150F5, size: 0x8, addend: 0x0, symName: __ZNSt3__117__compressed_pairINS_16__hash_node_baseIPNS_11__hash_nodeIcPvEEEENS_9allocatorIS4_EEE5firstB8ue170006Ev, symObjAddr: 0x4B1C, symBinAddr: 0x100005278, symSize: 0x24 }
  - { offsetInCU: 0x1511A, offset: 0x1511A, size: 0x8, addend: 0x0, symName: __ZNSt3__116__hash_node_baseIPNS_11__hash_nodeIcPvEEE5__ptrB8ue170006Ev, symObjAddr: 0x4B40, symBinAddr: 0x10000529C, symSize: 0x24 }
  - { offsetInCU: 0x1513F, offset: 0x1513F, size: 0x8, addend: 0x0, symName: __ZNKSt3__110unique_ptrINS_11__hash_nodeIcPvEENS_22__hash_node_destructorINS_9allocatorIS3_EEEEEptB8ue170006Ev, symObjAddr: 0x4B64, symBinAddr: 0x1000052C0, symSize: 0x28 }
  - { offsetInCU: 0x15164, offset: 0x15164, size: 0x8, addend: 0x0, symName: __ZNKSt3__110unique_ptrINS_11__hash_nodeIcPvEENS_22__hash_node_destructorINS_9allocatorIS3_EEEEE3getB8ue170006Ev, symObjAddr: 0x4B8C, symBinAddr: 0x1000052E8, symSize: 0x28 }
  - { offsetInCU: 0x15189, offset: 0x15189, size: 0x8, addend: 0x0, symName: __ZNSt3__110unique_ptrINS_11__hash_nodeIcPvEENS_22__hash_node_destructorINS_9allocatorIS3_EEEEE7releaseB8ue170006Ev, symObjAddr: 0x4BB4, symBinAddr: 0x100005310, symSize: 0x44 }
  - { offsetInCU: 0x151BD, offset: 0x151BD, size: 0x8, addend: 0x0, symName: __ZNSt3__110unique_ptrINS_11__hash_nodeIcPvEENS_22__hash_node_destructorINS_9allocatorIS3_EEEEED1B8ue170006Ev, symObjAddr: 0x4BF8, symBinAddr: 0x100005354, symSize: 0x2C }
  - { offsetInCU: 0x151E6, offset: 0x151E6, size: 0x8, addend: 0x0, symName: __ZNSt3__115__hash_iteratorIPNS_11__hash_nodeIcPvEEEC1B8ue170006EPNS_16__hash_node_baseIS4_EE, symObjAddr: 0x4C24, symBinAddr: 0x100005380, symSize: 0x34 }
  - { offsetInCU: 0x15223, offset: 0x15223, size: 0x8, addend: 0x0, symName: __ZNSt3__14pairINS_15__hash_iteratorIPNS_11__hash_nodeIcPvEEEEbEC1B8ue170006IS6_RbLS3_0EEEOT_OT0_, symObjAddr: 0x4C58, symBinAddr: 0x1000053B4, symSize: 0x3C }
  - { offsetInCU: 0x15280, offset: 0x15280, size: 0x8, addend: 0x0, symName: __ZNSt3__117__compressed_pairImNS_4hashIcEEE6secondB8ue170006Ev, symObjAddr: 0x4C94, symBinAddr: 0x1000053F0, symSize: 0x24 }
  - { offsetInCU: 0x152A5, offset: 0x152A5, size: 0x8, addend: 0x0, symName: __ZNSt3__122__compressed_pair_elemINS_4hashIcEELi1ELb1EE5__getB8ue170006Ev, symObjAddr: 0x4CB8, symBinAddr: 0x100005414, symSize: 0x14 }
  - { offsetInCU: 0x152CA, offset: 0x152CA, size: 0x8, addend: 0x0, symName: __ZNKSt3__110unique_ptrIA_PNS_16__hash_node_baseIPNS_11__hash_nodeIcPvEEEENS_25__bucket_list_deallocatorINS_9allocatorIS7_EEEEE11get_deleterB8ue170006Ev, symObjAddr: 0x4CCC, symBinAddr: 0x100005428, symSize: 0x24 }
  - { offsetInCU: 0x152EF, offset: 0x152EF, size: 0x8, addend: 0x0, symName: __ZNKSt3__125__bucket_list_deallocatorINS_9allocatorIPNS_16__hash_node_baseIPNS_11__hash_nodeIcPvEEEEEEE4sizeB8ue170006Ev, symObjAddr: 0x4CF0, symBinAddr: 0x10000544C, symSize: 0x28 }
  - { offsetInCU: 0x15314, offset: 0x15314, size: 0x8, addend: 0x0, symName: __ZNKSt3__117__compressed_pairIPPNS_16__hash_node_baseIPNS_11__hash_nodeIcPvEEEENS_25__bucket_list_deallocatorINS_9allocatorIS7_EEEEE6secondB8ue170006Ev, symObjAddr: 0x4D18, symBinAddr: 0x100005474, symSize: 0x28 }
  - { offsetInCU: 0x15339, offset: 0x15339, size: 0x8, addend: 0x0, symName: __ZNKSt3__122__compressed_pair_elemINS_25__bucket_list_deallocatorINS_9allocatorIPNS_16__hash_node_baseIPNS_11__hash_nodeIcPvEEEEEEEELi1ELb0EE5__getB8ue170006Ev, symObjAddr: 0x4D40, symBinAddr: 0x10000549C, symSize: 0x14 }
  - { offsetInCU: 0x1535E, offset: 0x1535E, size: 0x8, addend: 0x0, symName: __ZNKSt3__117__compressed_pairImNS_9allocatorIPNS_16__hash_node_baseIPNS_11__hash_nodeIcPvEEEEEEE5firstB8ue170006Ev, symObjAddr: 0x4D54, symBinAddr: 0x1000054B0, symSize: 0x24 }
  - { offsetInCU: 0x15383, offset: 0x15383, size: 0x8, addend: 0x0, symName: __ZNKSt3__117__compressed_pairIPPNS_16__hash_node_baseIPNS_11__hash_nodeIcPvEEEENS_25__bucket_list_deallocatorINS_9allocatorIS7_EEEEE5firstB8ue170006Ev, symObjAddr: 0x4D78, symBinAddr: 0x1000054D4, symSize: 0x24 }
  - { offsetInCU: 0x153A8, offset: 0x153A8, size: 0x8, addend: 0x0, symName: __ZNKSt3__122__compressed_pair_elemIPPNS_16__hash_node_baseIPNS_11__hash_nodeIcPvEEEELi0ELb0EE5__getB8ue170006Ev, symObjAddr: 0x4D9C, symBinAddr: 0x1000054F8, symSize: 0x14 }
  - { offsetInCU: 0x153CD, offset: 0x153CD, size: 0x8, addend: 0x0, symName: __ZNSt3__117__compressed_pairIfNS_8equal_toIcEEE6secondB8ue170006Ev, symObjAddr: 0x4DB0, symBinAddr: 0x10000550C, symSize: 0x24 }
  - { offsetInCU: 0x153F2, offset: 0x153F2, size: 0x8, addend: 0x0, symName: __ZNSt3__122__compressed_pair_elemINS_8equal_toIcEELi1ELb1EE5__getB8ue170006Ev, symObjAddr: 0x4DD4, symBinAddr: 0x100005530, symSize: 0x14 }
  - { offsetInCU: 0x15417, offset: 0x15417, size: 0x8, addend: 0x0, symName: __ZNSt3__114pointer_traitsIPNS_16__hash_node_baseIPNS_11__hash_nodeIcPvEEEEE10pointer_toB8ue170006ERS6_, symObjAddr: 0x4DE8, symBinAddr: 0x100005544, symSize: 0x14 }
  - { offsetInCU: 0x1543A, offset: 0x1543A, size: 0x8, addend: 0x0, symName: __ZNSt3__112__hash_tableIcNS_4hashIcEENS_8equal_toIcEENS_9allocatorIcEEE12__node_allocB8ue170006Ev, symObjAddr: 0x4DFC, symBinAddr: 0x100005558, symSize: 0x28 }
  - { offsetInCU: 0x1545F, offset: 0x1545F, size: 0x8, addend: 0x0, symName: __ZNSt3__116allocator_traitsINS_9allocatorINS_11__hash_nodeIcPvEEEEE8allocateB8ue170006ERS5_m, symObjAddr: 0x4E24, symBinAddr: 0x100005580, symSize: 0x2C }
  - { offsetInCU: 0x15492, offset: 0x15492, size: 0x8, addend: 0x0, symName: __ZNSt3__122__hash_node_destructorINS_9allocatorINS_11__hash_nodeIcPvEEEEEC1B8ue170006ERS5_b, symObjAddr: 0x4E50, symBinAddr: 0x1000055AC, symSize: 0x48 }
  - { offsetInCU: 0x154DE, offset: 0x154DE, size: 0x8, addend: 0x0, symName: __ZNSt3__110unique_ptrINS_11__hash_nodeIcPvEENS_22__hash_node_destructorINS_9allocatorIS3_EEEEEC1B8ue170006ILb1EvEEPS3_NS_16__dependent_typeINS_27__unique_ptr_deleter_sfinaeIS7_EEXT_EE20__good_rval_ref_typeE, symObjAddr: 0x4E98, symBinAddr: 0x1000055F4, symSize: 0x3C }
  - { offsetInCU: 0x1552E, offset: 0x1552E, size: 0x8, addend: 0x0, symName: __ZNSt3__116allocator_traitsINS_9allocatorINS_11__hash_nodeIcPvEEEEE9constructB8ue170006IcJRKcEvEEvRS5_PT_DpOT0_, symObjAddr: 0x4ED4, symBinAddr: 0x100005630, symSize: 0x34 }
  - { offsetInCU: 0x15585, offset: 0x15585, size: 0x8, addend: 0x0, symName: __ZNSt3__122__hash_key_value_typesIcE9__get_ptrB8ue170006ERc, symObjAddr: 0x4F08, symBinAddr: 0x100005664, symSize: 0x14 }
  - { offsetInCU: 0x155A8, offset: 0x155A8, size: 0x8, addend: 0x0, symName: __ZNSt3__110unique_ptrINS_11__hash_nodeIcPvEENS_22__hash_node_destructorINS_9allocatorIS3_EEEEE11get_deleterB8ue170006Ev, symObjAddr: 0x4F1C, symBinAddr: 0x100005678, symSize: 0x24 }
  - { offsetInCU: 0x155CD, offset: 0x155CD, size: 0x8, addend: 0x0, symName: __ZNSt3__117__compressed_pairINS_16__hash_node_baseIPNS_11__hash_nodeIcPvEEEENS_9allocatorIS4_EEE6secondB8ue170006Ev, symObjAddr: 0x4F40, symBinAddr: 0x10000569C, symSize: 0x24 }
  - { offsetInCU: 0x155F2, offset: 0x155F2, size: 0x8, addend: 0x0, symName: __ZNSt3__122__compressed_pair_elemINS_9allocatorINS_11__hash_nodeIcPvEEEELi1ELb1EE5__getB8ue170006Ev, symObjAddr: 0x4F64, symBinAddr: 0x1000056C0, symSize: 0x14 }
  - { offsetInCU: 0x15617, offset: 0x15617, size: 0x8, addend: 0x0, symName: __ZNSt3__19allocatorINS_11__hash_nodeIcPvEEE8allocateB8ue170006Em, symObjAddr: 0x4F78, symBinAddr: 0x1000056D4, symSize: 0x5C }
  - { offsetInCU: 0x15654, offset: 0x15654, size: 0x8, addend: 0x0, symName: __ZNSt3__116allocator_traitsINS_9allocatorINS_11__hash_nodeIcPvEEEEE8max_sizeB8ue170006IS5_vEEmRKS5_, symObjAddr: 0x4FD4, symBinAddr: 0x100005730, symSize: 0x24 }
  - { offsetInCU: 0x15682, offset: 0x15682, size: 0x8, addend: 0x0, symName: __ZNKSt3__19allocatorINS_11__hash_nodeIcPvEEE8max_sizeB8ue170006Ev, symObjAddr: 0x4FF8, symBinAddr: 0x100005754, symSize: 0x18 }
  - { offsetInCU: 0x156A7, offset: 0x156A7, size: 0x8, addend: 0x0, symName: __ZNSt3__122__hash_node_destructorINS_9allocatorINS_11__hash_nodeIcPvEEEEEC2B8ue170006ERS5_b, symObjAddr: 0x5010, symBinAddr: 0x10000576C, symSize: 0x38 }
  - { offsetInCU: 0x156EE, offset: 0x156EE, size: 0x8, addend: 0x0, symName: __ZNSt3__110unique_ptrINS_11__hash_nodeIcPvEENS_22__hash_node_destructorINS_9allocatorIS3_EEEEEC2B8ue170006ILb1EvEEPS3_NS_16__dependent_typeINS_27__unique_ptr_deleter_sfinaeIS7_EEXT_EE20__good_rval_ref_typeE, symObjAddr: 0x5048, symBinAddr: 0x1000057A4, symSize: 0x48 }
  - { offsetInCU: 0x1573E, offset: 0x1573E, size: 0x8, addend: 0x0, symName: __ZNSt3__117__compressed_pairIPNS_11__hash_nodeIcPvEENS_22__hash_node_destructorINS_9allocatorIS3_EEEEEC1B8ue170006IRS4_S8_EEOT_OT0_, symObjAddr: 0x5090, symBinAddr: 0x1000057EC, symSize: 0x3C }
  - { offsetInCU: 0x15795, offset: 0x15795, size: 0x8, addend: 0x0, symName: __ZNSt3__117__compressed_pairIPNS_11__hash_nodeIcPvEENS_22__hash_node_destructorINS_9allocatorIS3_EEEEEC2B8ue170006IRS4_S8_EEOT_OT0_, symObjAddr: 0x50CC, symBinAddr: 0x100005828, symSize: 0x48 }
  - { offsetInCU: 0x157EC, offset: 0x157EC, size: 0x8, addend: 0x0, symName: __ZNSt3__122__compressed_pair_elemIPNS_11__hash_nodeIcPvEELi0ELb0EEC2B8ue170006IRS4_vEEOT_, symObjAddr: 0x5114, symBinAddr: 0x100005870, symSize: 0x24 }
  - { offsetInCU: 0x1582D, offset: 0x1582D, size: 0x8, addend: 0x0, symName: __ZNSt3__122__compressed_pair_elemINS_22__hash_node_destructorINS_9allocatorINS_11__hash_nodeIcPvEEEEEELi1ELb0EEC2B8ue170006IS7_vEEOT_, symObjAddr: 0x5138, symBinAddr: 0x100005894, symSize: 0x24 }
  - { offsetInCU: 0x1586E, offset: 0x1586E, size: 0x8, addend: 0x0, symName: __ZNSt3__19allocatorINS_11__hash_nodeIcPvEEE9constructB8ue170006IcJRKcEEEvPT_DpOT0_, symObjAddr: 0x515C, symBinAddr: 0x1000058B8, symSize: 0x28 }
  - { offsetInCU: 0x158C3, offset: 0x158C3, size: 0x8, addend: 0x0, symName: __ZNSt3__117__compressed_pairIPNS_11__hash_nodeIcPvEENS_22__hash_node_destructorINS_9allocatorIS3_EEEEE6secondB8ue170006Ev, symObjAddr: 0x5184, symBinAddr: 0x1000058E0, symSize: 0x28 }
  - { offsetInCU: 0x158E8, offset: 0x158E8, size: 0x8, addend: 0x0, symName: __ZNSt3__122__compressed_pair_elemINS_22__hash_node_destructorINS_9allocatorINS_11__hash_nodeIcPvEEEEEELi1ELb0EE5__getB8ue170006Ev, symObjAddr: 0x51AC, symBinAddr: 0x100005908, symSize: 0x14 }
  - { offsetInCU: 0x1590D, offset: 0x1590D, size: 0x8, addend: 0x0, symName: __ZNSt3__117__compressed_pairImNS_4hashIcEEE5firstB8ue170006Ev, symObjAddr: 0x51C0, symBinAddr: 0x10000591C, symSize: 0x24 }
  - { offsetInCU: 0x15932, offset: 0x15932, size: 0x8, addend: 0x0, symName: __ZNSt3__117__compressed_pairIfNS_8equal_toIcEEE5firstB8ue170006Ev, symObjAddr: 0x51E4, symBinAddr: 0x100005940, symSize: 0x24 }
  - { offsetInCU: 0x15956, offset: 0x15956, size: 0x8, addend: 0x0, symName: __ZNSt3__112__hash_tableIcNS_4hashIcEENS_8equal_toIcEENS_9allocatorIcEEE8__rehashILb1EEEvm, symObjAddr: 0x5208, symBinAddr: 0x100005964, symSize: 0x1A8 }
  - { offsetInCU: 0x159A4, offset: 0x159A4, size: 0x8, addend: 0x0, symName: __ZNSt3__112__hash_tableIcNS_4hashIcEENS_8equal_toIcEENS_9allocatorIcEEE11__do_rehashILb1EEEvm, symObjAddr: 0x53B0, symBinAddr: 0x100005B0C, symSize: 0x288 }
  - { offsetInCU: 0x15A8A, offset: 0x15A8A, size: 0x8, addend: 0x0, symName: __ZNSt3__110unique_ptrIA_PNS_16__hash_node_baseIPNS_11__hash_nodeIcPvEEEENS_25__bucket_list_deallocatorINS_9allocatorIS7_EEEEE11get_deleterB8ue170006Ev, symObjAddr: 0x5638, symBinAddr: 0x100005D94, symSize: 0x24 }
  - { offsetInCU: 0x15AAF, offset: 0x15AAF, size: 0x8, addend: 0x0, symName: __ZNSt3__125__bucket_list_deallocatorINS_9allocatorIPNS_16__hash_node_baseIPNS_11__hash_nodeIcPvEEEEEEE7__allocB8ue170006Ev, symObjAddr: 0x565C, symBinAddr: 0x100005DB8, symSize: 0x24 }
  - { offsetInCU: 0x15AD4, offset: 0x15AD4, size: 0x8, addend: 0x0, symName: __ZNSt3__110unique_ptrIA_PNS_16__hash_node_baseIPNS_11__hash_nodeIcPvEEEENS_25__bucket_list_deallocatorINS_9allocatorIS7_EEEEE5resetB8ue170006IPS7_EENS_9enable_ifIXsr28_CheckArrayPointerConversionIT_EE5valueEvE4typeESH_, symObjAddr: 0x5680, symBinAddr: 0x100005DDC, symSize: 0x78 }
  - { offsetInCU: 0x15B20, offset: 0x15B20, size: 0x8, addend: 0x0, symName: __ZNSt3__116allocator_traitsINS_9allocatorIPNS_16__hash_node_baseIPNS_11__hash_nodeIcPvEEEEEEE8allocateB8ue170006ERS9_m, symObjAddr: 0x56F8, symBinAddr: 0x100005E54, symSize: 0x2C }
  - { offsetInCU: 0x15B53, offset: 0x15B53, size: 0x8, addend: 0x0, symName: __ZNSt3__125__bucket_list_deallocatorINS_9allocatorIPNS_16__hash_node_baseIPNS_11__hash_nodeIcPvEEEEEEE4sizeB8ue170006Ev, symObjAddr: 0x5724, symBinAddr: 0x100005E80, symSize: 0x24 }
  - { offsetInCU: 0x15B78, offset: 0x15B78, size: 0x8, addend: 0x0, symName: __ZNSt3__117__compressed_pairIPPNS_16__hash_node_baseIPNS_11__hash_nodeIcPvEEEENS_25__bucket_list_deallocatorINS_9allocatorIS7_EEEEE6secondB8ue170006Ev, symObjAddr: 0x5748, symBinAddr: 0x100005EA4, symSize: 0x28 }
  - { offsetInCU: 0x15B9D, offset: 0x15B9D, size: 0x8, addend: 0x0, symName: __ZNSt3__122__compressed_pair_elemINS_25__bucket_list_deallocatorINS_9allocatorIPNS_16__hash_node_baseIPNS_11__hash_nodeIcPvEEEEEEEELi1ELb0EE5__getB8ue170006Ev, symObjAddr: 0x5770, symBinAddr: 0x100005ECC, symSize: 0x14 }
  - { offsetInCU: 0x15BC2, offset: 0x15BC2, size: 0x8, addend: 0x0, symName: __ZNSt3__117__compressed_pairImNS_9allocatorIPNS_16__hash_node_baseIPNS_11__hash_nodeIcPvEEEEEEE6secondB8ue170006Ev, symObjAddr: 0x5784, symBinAddr: 0x100005EE0, symSize: 0x24 }
  - { offsetInCU: 0x15BE7, offset: 0x15BE7, size: 0x8, addend: 0x0, symName: __ZNSt3__122__compressed_pair_elemINS_9allocatorIPNS_16__hash_node_baseIPNS_11__hash_nodeIcPvEEEEEELi1ELb1EE5__getB8ue170006Ev, symObjAddr: 0x57A8, symBinAddr: 0x100005F04, symSize: 0x14 }
  - { offsetInCU: 0x15C0C, offset: 0x15C0C, size: 0x8, addend: 0x0, symName: __ZNSt3__117__compressed_pairIPPNS_16__hash_node_baseIPNS_11__hash_nodeIcPvEEEENS_25__bucket_list_deallocatorINS_9allocatorIS7_EEEEE5firstB8ue170006Ev, symObjAddr: 0x57BC, symBinAddr: 0x100005F18, symSize: 0x24 }
  - { offsetInCU: 0x15C31, offset: 0x15C31, size: 0x8, addend: 0x0, symName: __ZNSt3__125__bucket_list_deallocatorINS_9allocatorIPNS_16__hash_node_baseIPNS_11__hash_nodeIcPvEEEEEEEclB8ue170006EPS8_, symObjAddr: 0x57E0, symBinAddr: 0x100005F3C, symSize: 0x58 }
  - { offsetInCU: 0x15C65, offset: 0x15C65, size: 0x8, addend: 0x0, symName: __ZNSt3__122__compressed_pair_elemIPPNS_16__hash_node_baseIPNS_11__hash_nodeIcPvEEEELi0ELb0EE5__getB8ue170006Ev, symObjAddr: 0x5838, symBinAddr: 0x100005F94, symSize: 0x14 }
  - { offsetInCU: 0x15C8A, offset: 0x15C8A, size: 0x8, addend: 0x0, symName: __ZNSt3__116allocator_traitsINS_9allocatorIPNS_16__hash_node_baseIPNS_11__hash_nodeIcPvEEEEEEE10deallocateB8ue170006ERS9_PS8_m, symObjAddr: 0x584C, symBinAddr: 0x100005FA8, symSize: 0x34 }
  - { offsetInCU: 0x15CCC, offset: 0x15CCC, size: 0x8, addend: 0x0, symName: __ZNSt3__19allocatorIPNS_16__hash_node_baseIPNS_11__hash_nodeIcPvEEEEE10deallocateB8ue170006EPS7_m, symObjAddr: 0x5880, symBinAddr: 0x100005FDC, symSize: 0x40 }
  - { offsetInCU: 0x15D0D, offset: 0x15D0D, size: 0x8, addend: 0x0, symName: __ZNSt3__19allocatorIPNS_16__hash_node_baseIPNS_11__hash_nodeIcPvEEEEE8allocateB8ue170006Em, symObjAddr: 0x58C0, symBinAddr: 0x10000601C, symSize: 0x58 }
  - { offsetInCU: 0x15D4A, offset: 0x15D4A, size: 0x8, addend: 0x0, symName: __ZNSt3__116allocator_traitsINS_9allocatorIPNS_16__hash_node_baseIPNS_11__hash_nodeIcPvEEEEEEE8max_sizeB8ue170006IS9_vEEmRKS9_, symObjAddr: 0x5918, symBinAddr: 0x100006074, symSize: 0x24 }
  - { offsetInCU: 0x15D78, offset: 0x15D78, size: 0x8, addend: 0x0, symName: __ZNKSt3__19allocatorIPNS_16__hash_node_baseIPNS_11__hash_nodeIcPvEEEEE8max_sizeB8ue170006Ev, symObjAddr: 0x593C, symBinAddr: 0x100006098, symSize: 0x14 }
  - { offsetInCU: 0x15D9D, offset: 0x15D9D, size: 0x8, addend: 0x0, symName: __ZNSt3__117__compressed_pairImNS_9allocatorIPNS_16__hash_node_baseIPNS_11__hash_nodeIcPvEEEEEEE5firstB8ue170006Ev, symObjAddr: 0x5950, symBinAddr: 0x1000060AC, symSize: 0x24 }
  - { offsetInCU: 0x15DC2, offset: 0x15DC2, size: 0x8, addend: 0x0, symName: __ZNSt3__122__compressed_pair_elemINS_16__hash_node_baseIPNS_11__hash_nodeIcPvEEEELi0ELb0EE5__getB8ue170006Ev, symObjAddr: 0x5974, symBinAddr: 0x1000060D0, symSize: 0x14 }
  - { offsetInCU: 0x15DE7, offset: 0x15DE7, size: 0x8, addend: 0x0, symName: __ZNKSt3__117__compressed_pairIPNS_11__hash_nodeIcPvEENS_22__hash_node_destructorINS_9allocatorIS3_EEEEE5firstB8ue170006Ev, symObjAddr: 0x5988, symBinAddr: 0x1000060E4, symSize: 0x24 }
  - { offsetInCU: 0x15E0C, offset: 0x15E0C, size: 0x8, addend: 0x0, symName: __ZNKSt3__122__compressed_pair_elemIPNS_11__hash_nodeIcPvEELi0ELb0EE5__getB8ue170006Ev, symObjAddr: 0x59AC, symBinAddr: 0x100006108, symSize: 0x14 }
  - { offsetInCU: 0x15E31, offset: 0x15E31, size: 0x8, addend: 0x0, symName: __ZNSt3__117__compressed_pairIPNS_11__hash_nodeIcPvEENS_22__hash_node_destructorINS_9allocatorIS3_EEEEE5firstB8ue170006Ev, symObjAddr: 0x59C0, symBinAddr: 0x10000611C, symSize: 0x24 }
  - { offsetInCU: 0x15E56, offset: 0x15E56, size: 0x8, addend: 0x0, symName: __ZNSt3__122__compressed_pair_elemIPNS_11__hash_nodeIcPvEELi0ELb0EE5__getB8ue170006Ev, symObjAddr: 0x59E4, symBinAddr: 0x100006140, symSize: 0x14 }
  - { offsetInCU: 0x15E7B, offset: 0x15E7B, size: 0x8, addend: 0x0, symName: __ZNSt3__110unique_ptrINS_11__hash_nodeIcPvEENS_22__hash_node_destructorINS_9allocatorIS3_EEEEED2B8ue170006Ev, symObjAddr: 0x59F8, symBinAddr: 0x100006154, symSize: 0x30 }
  - { offsetInCU: 0x15EA4, offset: 0x15EA4, size: 0x8, addend: 0x0, symName: __ZNSt3__110unique_ptrINS_11__hash_nodeIcPvEENS_22__hash_node_destructorINS_9allocatorIS3_EEEEE5resetB8ue170006EPS3_, symObjAddr: 0x5A28, symBinAddr: 0x100006184, symSize: 0x78 }
  - { offsetInCU: 0x15EE7, offset: 0x15EE7, size: 0x8, addend: 0x0, symName: __ZNSt3__122__hash_node_destructorINS_9allocatorINS_11__hash_nodeIcPvEEEEEclB8ue170006EPS4_, symObjAddr: 0x5AA0, symBinAddr: 0x1000061FC, symSize: 0x90 }
  - { offsetInCU: 0x15F1B, offset: 0x15F1B, size: 0x8, addend: 0x0, symName: __ZNSt3__116allocator_traitsINS_9allocatorINS_11__hash_nodeIcPvEEEEE7destroyB8ue170006IcvvEEvRS5_PT_, symObjAddr: 0x5B30, symBinAddr: 0x10000628C, symSize: 0x14 }
  - { offsetInCU: 0x15F55, offset: 0x15F55, size: 0x8, addend: 0x0, symName: __ZNSt3__116allocator_traitsINS_9allocatorINS_11__hash_nodeIcPvEEEEE10deallocateB8ue170006ERS5_PS4_m, symObjAddr: 0x5B44, symBinAddr: 0x1000062A0, symSize: 0x34 }
  - { offsetInCU: 0x15F97, offset: 0x15F97, size: 0x8, addend: 0x0, symName: __ZNSt3__19allocatorINS_11__hash_nodeIcPvEEE10deallocateB8ue170006EPS3_m, symObjAddr: 0x5B78, symBinAddr: 0x1000062D4, symSize: 0x44 }
  - { offsetInCU: 0x15FD8, offset: 0x15FD8, size: 0x8, addend: 0x0, symName: __ZNSt3__115__hash_iteratorIPNS_11__hash_nodeIcPvEEEC2B8ue170006EPNS_16__hash_node_baseIS4_EE, symObjAddr: 0x5BBC, symBinAddr: 0x100006318, symSize: 0x20 }
  - { offsetInCU: 0x16010, offset: 0x16010, size: 0x8, addend: 0x0, symName: __ZNSt3__14pairINS_15__hash_iteratorIPNS_11__hash_nodeIcPvEEEEbEC2B8ue170006IS6_RbLS3_0EEEOT_OT0_, symObjAddr: 0x5BDC, symBinAddr: 0x100006338, symSize: 0x38 }
  - { offsetInCU: 0x1606D, offset: 0x1606D, size: 0x8, addend: 0x0, symName: __ZNSt3__112__hash_tableIcNS_4hashIcEENS_8equal_toIcEENS_9allocatorIcEEED2Ev, symObjAddr: 0x5C14, symBinAddr: 0x100006370, symSize: 0x48 }
  - { offsetInCU: 0x16097, offset: 0x16097, size: 0x8, addend: 0x0, symName: __ZNSt3__112__hash_tableIcNS_4hashIcEENS_8equal_toIcEENS_9allocatorIcEEE17__deallocate_nodeEPNS_16__hash_node_baseIPNS_11__hash_nodeIcPvEEEE, symObjAddr: 0x5C5C, symBinAddr: 0x1000063B8, symSize: 0x98 }
  - { offsetInCU: 0x16109, offset: 0x16109, size: 0x8, addend: 0x0, symName: __ZNSt3__110unique_ptrIA_PNS_16__hash_node_baseIPNS_11__hash_nodeIcPvEEEENS_25__bucket_list_deallocatorINS_9allocatorIS7_EEEEED1B8ue170006Ev, symObjAddr: 0x5CF4, symBinAddr: 0x100006450, symSize: 0x2C }
  - { offsetInCU: 0x16132, offset: 0x16132, size: 0x8, addend: 0x0, symName: __ZNSt3__110unique_ptrIA_PNS_16__hash_node_baseIPNS_11__hash_nodeIcPvEEEENS_25__bucket_list_deallocatorINS_9allocatorIS7_EEEEED2B8ue170006Ev, symObjAddr: 0x5D20, symBinAddr: 0x10000647C, symSize: 0x30 }
  - { offsetInCU: 0x1615B, offset: 0x1615B, size: 0x8, addend: 0x0, symName: __ZNSt3__110unique_ptrIA_PNS_16__hash_node_baseIPNS_11__hash_nodeIcPvEEEENS_25__bucket_list_deallocatorINS_9allocatorIS7_EEEEE5resetB8ue170006EDn, symObjAddr: 0x5D50, symBinAddr: 0x1000064AC, symSize: 0x6C }
  - { offsetInCU: 0x1619A, offset: 0x1619A, size: 0x8, addend: 0x0, symName: __ZNSt3__113unordered_mapIciNS_4hashIcEENS_8equal_toIcEENS_9allocatorINS_4pairIKciEEEEEC2ERKSA_, symObjAddr: 0x5DBC, symBinAddr: 0x100006518, symSize: 0xA0 }
  - { offsetInCU: 0x161D4, offset: 0x161D4, size: 0x8, addend: 0x0, symName: __ZNSt3__112__hash_tableINS_17__hash_value_typeIciEENS_22__unordered_map_hasherIcS2_NS_4hashIcEENS_8equal_toIcEELb1EEENS_21__unordered_map_equalIcS2_S7_S5_Lb1EEENS_9allocatorIS2_EEEC1ERKSD_, symObjAddr: 0x5E5C, symBinAddr: 0x1000065B8, symSize: 0x34 }
  - { offsetInCU: 0x1620E, offset: 0x1620E, size: 0x8, addend: 0x0, symName: __ZNKSt3__113unordered_mapIciNS_4hashIcEENS_8equal_toIcEENS_9allocatorINS_4pairIKciEEEEE12bucket_countB8ue170006Ev, symObjAddr: 0x5E90, symBinAddr: 0x1000065EC, symSize: 0x24 }
  - { offsetInCU: 0x16232, offset: 0x16232, size: 0x8, addend: 0x0, symName: __ZNSt3__113unordered_mapIciNS_4hashIcEENS_8equal_toIcEENS_9allocatorINS_4pairIKciEEEEE6insertINS_25__hash_map_const_iteratorINS_21__hash_const_iteratorIPNS_11__hash_nodeINS_17__hash_value_typeIciEEPvEEEEEEEEvT_SM_, symObjAddr: 0x5EB4, symBinAddr: 0x100006610, symSize: 0x70 }
  - { offsetInCU: 0x16280, offset: 0x16280, size: 0x8, addend: 0x0, symName: __ZNKSt3__113unordered_mapIciNS_4hashIcEENS_8equal_toIcEENS_9allocatorINS_4pairIKciEEEEE5beginB8ue170006Ev, symObjAddr: 0x5F24, symBinAddr: 0x100006680, symSize: 0x38 }
  - { offsetInCU: 0x162A5, offset: 0x162A5, size: 0x8, addend: 0x0, symName: __ZNKSt3__113unordered_mapIciNS_4hashIcEENS_8equal_toIcEENS_9allocatorINS_4pairIKciEEEEE3endB8ue170006Ev, symObjAddr: 0x5F5C, symBinAddr: 0x1000066B8, symSize: 0x38 }
  - { offsetInCU: 0x162CA, offset: 0x162CA, size: 0x8, addend: 0x0, symName: __ZNSt3__112__hash_tableINS_17__hash_value_typeIciEENS_22__unordered_map_hasherIcS2_NS_4hashIcEENS_8equal_toIcEELb1EEENS_21__unordered_map_equalIcS2_S7_S5_Lb1EEENS_9allocatorIS2_EEED1Ev, symObjAddr: 0x5F94, symBinAddr: 0x1000066F0, symSize: 0x2C }
  - { offsetInCU: 0x162F5, offset: 0x162F5, size: 0x8, addend: 0x0, symName: __ZNSt3__112__hash_tableINS_17__hash_value_typeIciEENS_22__unordered_map_hasherIcS2_NS_4hashIcEENS_8equal_toIcEELb1EEENS_21__unordered_map_equalIcS2_S7_S5_Lb1EEENS_9allocatorIS2_EEEC2ERKSD_, symObjAddr: 0x5FC0, symBinAddr: 0x10000671C, symSize: 0xEC }
  - { offsetInCU: 0x1632F, offset: 0x1632F, size: 0x8, addend: 0x0, symName: __ZNSt3__116allocator_traitsINS_9allocatorIPNS_16__hash_node_baseIPNS_11__hash_nodeINS_17__hash_value_typeIciEEPvEEEEEEE37select_on_container_copy_constructionB8ue170006ISB_vvEESB_RKSB_, symObjAddr: 0x60AC, symBinAddr: 0x100006808, symSize: 0x10 }
  - { offsetInCU: 0x1635E, offset: 0x1635E, size: 0x8, addend: 0x0, symName: __ZNKSt3__125__bucket_list_deallocatorINS_9allocatorIPNS_16__hash_node_baseIPNS_11__hash_nodeINS_17__hash_value_typeIciEEPvEEEEEEE7__allocB8ue170006Ev, symObjAddr: 0x60BC, symBinAddr: 0x100006818, symSize: 0x24 }
  - { offsetInCU: 0x16383, offset: 0x16383, size: 0x8, addend: 0x0, symName: __ZNSt3__125__bucket_list_deallocatorINS_9allocatorIPNS_16__hash_node_baseIPNS_11__hash_nodeINS_17__hash_value_typeIciEEPvEEEEEEEC1B8ue170006ERKSB_m, symObjAddr: 0x60E0, symBinAddr: 0x10000683C, symSize: 0x3C }
  - { offsetInCU: 0x163CA, offset: 0x163CA, size: 0x8, addend: 0x0, symName: __ZNSt3__110unique_ptrIA_PNS_16__hash_node_baseIPNS_11__hash_nodeINS_17__hash_value_typeIciEEPvEEEENS_25__bucket_list_deallocatorINS_9allocatorIS9_EEEEEC1B8ue170006ILb1EvEEDnNS_16__dependent_typeINS_27__unique_ptr_deleter_sfinaeISE_EEXT_EE20__good_rval_ref_typeE, symObjAddr: 0x611C, symBinAddr: 0x100006878, symSize: 0x3C }
  - { offsetInCU: 0x16418, offset: 0x16418, size: 0x8, addend: 0x0, symName: __ZNSt3__116allocator_traitsINS_9allocatorINS_11__hash_nodeINS_17__hash_value_typeIciEEPvEEEEE37select_on_container_copy_constructionB8ue170006IS7_vvEES7_RKS7_, symObjAddr: 0x6158, symBinAddr: 0x1000068B4, symSize: 0x10 }
  - { offsetInCU: 0x16447, offset: 0x16447, size: 0x8, addend: 0x0, symName: __ZNKSt3__112__hash_tableINS_17__hash_value_typeIciEENS_22__unordered_map_hasherIcS2_NS_4hashIcEENS_8equal_toIcEELb1EEENS_21__unordered_map_equalIcS2_S7_S5_Lb1EEENS_9allocatorIS2_EEE12__node_allocB8ue170006Ev, symObjAddr: 0x6168, symBinAddr: 0x1000068C4, symSize: 0x28 }
  - { offsetInCU: 0x16471, offset: 0x16471, size: 0x8, addend: 0x0, symName: __ZNSt3__117__compressed_pairINS_16__hash_node_baseIPNS_11__hash_nodeINS_17__hash_value_typeIciEEPvEEEENS_9allocatorIS6_EEEC1B8ue170006INS_18__default_init_tagESA_EEOT_OT0_, symObjAddr: 0x6190, symBinAddr: 0x1000068EC, symSize: 0x3C }
  - { offsetInCU: 0x164C8, offset: 0x164C8, size: 0x8, addend: 0x0, symName: __ZNKSt3__112__hash_tableINS_17__hash_value_typeIciEENS_22__unordered_map_hasherIcS2_NS_4hashIcEENS_8equal_toIcEELb1EEENS_21__unordered_map_equalIcS2_S7_S5_Lb1EEENS_9allocatorIS2_EEE13hash_functionB8ue170006Ev, symObjAddr: 0x61CC, symBinAddr: 0x100006928, symSize: 0x28 }
  - { offsetInCU: 0x164ED, offset: 0x164ED, size: 0x8, addend: 0x0, symName: __ZNSt3__117__compressed_pairImNS_22__unordered_map_hasherIcNS_17__hash_value_typeIciEENS_4hashIcEENS_8equal_toIcEELb1EEEEC1B8ue170006IiRKS8_EEOT_OT0_, symObjAddr: 0x61F4, symBinAddr: 0x100006950, symSize: 0x3C }
  - { offsetInCU: 0x16544, offset: 0x16544, size: 0x8, addend: 0x0, symName: __ZNSt3__110unique_ptrIA_PNS_16__hash_node_baseIPNS_11__hash_nodeINS_17__hash_value_typeIciEEPvEEEENS_25__bucket_list_deallocatorINS_9allocatorIS9_EEEEED1B8ue170006Ev, symObjAddr: 0x6230, symBinAddr: 0x10000698C, symSize: 0x2C }
  - { offsetInCU: 0x1656D, offset: 0x1656D, size: 0x8, addend: 0x0, symName: __ZNKSt3__117__compressed_pairImNS_9allocatorIPNS_16__hash_node_baseIPNS_11__hash_nodeINS_17__hash_value_typeIciEEPvEEEEEEE6secondB8ue170006Ev, symObjAddr: 0x625C, symBinAddr: 0x1000069B8, symSize: 0x24 }
  - { offsetInCU: 0x16592, offset: 0x16592, size: 0x8, addend: 0x0, symName: __ZNKSt3__122__compressed_pair_elemINS_9allocatorIPNS_16__hash_node_baseIPNS_11__hash_nodeINS_17__hash_value_typeIciEEPvEEEEEELi1ELb1EE5__getB8ue170006Ev, symObjAddr: 0x6280, symBinAddr: 0x1000069DC, symSize: 0x14 }
  - { offsetInCU: 0x165B7, offset: 0x165B7, size: 0x8, addend: 0x0, symName: __ZNSt3__125__bucket_list_deallocatorINS_9allocatorIPNS_16__hash_node_baseIPNS_11__hash_nodeINS_17__hash_value_typeIciEEPvEEEEEEEC2B8ue170006ERKSB_m, symObjAddr: 0x6294, symBinAddr: 0x1000069F0, symSize: 0x44 }
  - { offsetInCU: 0x165FE, offset: 0x165FE, size: 0x8, addend: 0x0, symName: __ZNSt3__117__compressed_pairImNS_9allocatorIPNS_16__hash_node_baseIPNS_11__hash_nodeINS_17__hash_value_typeIciEEPvEEEEEEEC1B8ue170006IRmRKSB_EEOT_OT0_, symObjAddr: 0x62D8, symBinAddr: 0x100006A34, symSize: 0x3C }
  - { offsetInCU: 0x16655, offset: 0x16655, size: 0x8, addend: 0x0, symName: __ZNSt3__117__compressed_pairImNS_9allocatorIPNS_16__hash_node_baseIPNS_11__hash_nodeINS_17__hash_value_typeIciEEPvEEEEEEEC2B8ue170006IRmRKSB_EEOT_OT0_, symObjAddr: 0x6314, symBinAddr: 0x100006A70, symSize: 0x44 }
  - { offsetInCU: 0x166AC, offset: 0x166AC, size: 0x8, addend: 0x0, symName: __ZNSt3__122__compressed_pair_elemImLi0ELb0EEC2B8ue170006IRmvEEOT_, symObjAddr: 0x6358, symBinAddr: 0x100006AB4, symSize: 0x24 }
  - { offsetInCU: 0x166ED, offset: 0x166ED, size: 0x8, addend: 0x0, symName: __ZNSt3__122__compressed_pair_elemINS_9allocatorIPNS_16__hash_node_baseIPNS_11__hash_nodeINS_17__hash_value_typeIciEEPvEEEEEELi1ELb1EEC2B8ue170006IRKSB_vEEOT_, symObjAddr: 0x637C, symBinAddr: 0x100006AD8, symSize: 0x18 }
  - { offsetInCU: 0x1672E, offset: 0x1672E, size: 0x8, addend: 0x0, symName: __ZNSt3__110unique_ptrIA_PNS_16__hash_node_baseIPNS_11__hash_nodeINS_17__hash_value_typeIciEEPvEEEENS_25__bucket_list_deallocatorINS_9allocatorIS9_EEEEEC2B8ue170006ILb1EvEEDnNS_16__dependent_typeINS_27__unique_ptr_deleter_sfinaeISE_EEXT_EE20__good_rval_ref_typeE, symObjAddr: 0x6394, symBinAddr: 0x100006AF0, symSize: 0x48 }
  - { offsetInCU: 0x1677C, offset: 0x1677C, size: 0x8, addend: 0x0, symName: __ZNSt3__117__compressed_pairIPPNS_16__hash_node_baseIPNS_11__hash_nodeINS_17__hash_value_typeIciEEPvEEEENS_25__bucket_list_deallocatorINS_9allocatorIS9_EEEEEC1B8ue170006IDnSE_EEOT_OT0_, symObjAddr: 0x63DC, symBinAddr: 0x100006B38, symSize: 0x3C }
  - { offsetInCU: 0x167D3, offset: 0x167D3, size: 0x8, addend: 0x0, symName: __ZNSt3__117__compressed_pairIPPNS_16__hash_node_baseIPNS_11__hash_nodeINS_17__hash_value_typeIciEEPvEEEENS_25__bucket_list_deallocatorINS_9allocatorIS9_EEEEEC2B8ue170006IDnSE_EEOT_OT0_, symObjAddr: 0x6418, symBinAddr: 0x100006B74, symSize: 0x48 }
  - { offsetInCU: 0x1682A, offset: 0x1682A, size: 0x8, addend: 0x0, symName: __ZNSt3__122__compressed_pair_elemIPPNS_16__hash_node_baseIPNS_11__hash_nodeINS_17__hash_value_typeIciEEPvEEEELi0ELb0EEC2B8ue170006IDnvEEOT_, symObjAddr: 0x6460, symBinAddr: 0x100006BBC, symSize: 0x1C }
  - { offsetInCU: 0x1686B, offset: 0x1686B, size: 0x8, addend: 0x0, symName: __ZNSt3__122__compressed_pair_elemINS_25__bucket_list_deallocatorINS_9allocatorIPNS_16__hash_node_baseIPNS_11__hash_nodeINS_17__hash_value_typeIciEEPvEEEEEEEELi1ELb0EEC2B8ue170006ISD_vEEOT_, symObjAddr: 0x647C, symBinAddr: 0x100006BD8, symSize: 0x34 }
  - { offsetInCU: 0x168AC, offset: 0x168AC, size: 0x8, addend: 0x0, symName: __ZNSt3__125__bucket_list_deallocatorINS_9allocatorIPNS_16__hash_node_baseIPNS_11__hash_nodeINS_17__hash_value_typeIciEEPvEEEEEEEC1B8ue170006EOSC_, symObjAddr: 0x64B0, symBinAddr: 0x100006C0C, symSize: 0x34 }
  - { offsetInCU: 0x168E4, offset: 0x168E4, size: 0x8, addend: 0x0, symName: __ZNSt3__125__bucket_list_deallocatorINS_9allocatorIPNS_16__hash_node_baseIPNS_11__hash_nodeINS_17__hash_value_typeIciEEPvEEEEEEEC2B8ue170006EOSC_, symObjAddr: 0x64E4, symBinAddr: 0x100006C40, symSize: 0x48 }
  - { offsetInCU: 0x1691C, offset: 0x1691C, size: 0x8, addend: 0x0, symName: __ZNKSt3__117__compressed_pairINS_16__hash_node_baseIPNS_11__hash_nodeINS_17__hash_value_typeIciEEPvEEEENS_9allocatorIS6_EEE6secondB8ue170006Ev, symObjAddr: 0x652C, symBinAddr: 0x100006C88, symSize: 0x24 }
  - { offsetInCU: 0x16941, offset: 0x16941, size: 0x8, addend: 0x0, symName: __ZNKSt3__122__compressed_pair_elemINS_9allocatorINS_11__hash_nodeINS_17__hash_value_typeIciEEPvEEEELi1ELb1EE5__getB8ue170006Ev, symObjAddr: 0x6550, symBinAddr: 0x100006CAC, symSize: 0x14 }
  - { offsetInCU: 0x16966, offset: 0x16966, size: 0x8, addend: 0x0, symName: __ZNSt3__117__compressed_pairINS_16__hash_node_baseIPNS_11__hash_nodeINS_17__hash_value_typeIciEEPvEEEENS_9allocatorIS6_EEEC2B8ue170006INS_18__default_init_tagESA_EEOT_OT0_, symObjAddr: 0x6564, symBinAddr: 0x100006CC0, symSize: 0x40 }
  - { offsetInCU: 0x169BD, offset: 0x169BD, size: 0x8, addend: 0x0, symName: __ZNSt3__122__compressed_pair_elemINS_16__hash_node_baseIPNS_11__hash_nodeINS_17__hash_value_typeIciEEPvEEEELi0ELb0EEC2B8ue170006ENS_18__default_init_tagE, symObjAddr: 0x65A4, symBinAddr: 0x100006D00, symSize: 0x2C }
  - { offsetInCU: 0x169F1, offset: 0x169F1, size: 0x8, addend: 0x0, symName: __ZNSt3__122__compressed_pair_elemINS_9allocatorINS_11__hash_nodeINS_17__hash_value_typeIciEEPvEEEELi1ELb1EEC2B8ue170006IS7_vEEOT_, symObjAddr: 0x65D0, symBinAddr: 0x100006D2C, symSize: 0x18 }
  - { offsetInCU: 0x16A32, offset: 0x16A32, size: 0x8, addend: 0x0, symName: __ZNKSt3__117__compressed_pairImNS_22__unordered_map_hasherIcNS_17__hash_value_typeIciEENS_4hashIcEENS_8equal_toIcEELb1EEEE6secondB8ue170006Ev, symObjAddr: 0x65E8, symBinAddr: 0x100006D44, symSize: 0x24 }
  - { offsetInCU: 0x16A57, offset: 0x16A57, size: 0x8, addend: 0x0, symName: __ZNKSt3__122__compressed_pair_elemINS_22__unordered_map_hasherIcNS_17__hash_value_typeIciEENS_4hashIcEENS_8equal_toIcEELb1EEELi1ELb1EE5__getB8ue170006Ev, symObjAddr: 0x660C, symBinAddr: 0x100006D68, symSize: 0x14 }
  - { offsetInCU: 0x16A7C, offset: 0x16A7C, size: 0x8, addend: 0x0, symName: __ZNSt3__117__compressed_pairImNS_22__unordered_map_hasherIcNS_17__hash_value_typeIciEENS_4hashIcEENS_8equal_toIcEELb1EEEEC2B8ue170006IiRKS8_EEOT_OT0_, symObjAddr: 0x6620, symBinAddr: 0x100006D7C, symSize: 0x44 }
  - { offsetInCU: 0x16AD3, offset: 0x16AD3, size: 0x8, addend: 0x0, symName: __ZNSt3__122__compressed_pair_elemINS_22__unordered_map_hasherIcNS_17__hash_value_typeIciEENS_4hashIcEENS_8equal_toIcEELb1EEELi1ELb1EEC2B8ue170006IRKS8_vEEOT_, symObjAddr: 0x6664, symBinAddr: 0x100006DC0, symSize: 0x18 }
  - { offsetInCU: 0x16B14, offset: 0x16B14, size: 0x8, addend: 0x0, symName: __ZNSt3__110unique_ptrIA_PNS_16__hash_node_baseIPNS_11__hash_nodeINS_17__hash_value_typeIciEEPvEEEENS_25__bucket_list_deallocatorINS_9allocatorIS9_EEEEED2B8ue170006Ev, symObjAddr: 0x667C, symBinAddr: 0x100006DD8, symSize: 0x30 }
  - { offsetInCU: 0x16B3D, offset: 0x16B3D, size: 0x8, addend: 0x0, symName: __ZNSt3__110unique_ptrIA_PNS_16__hash_node_baseIPNS_11__hash_nodeINS_17__hash_value_typeIciEEPvEEEENS_25__bucket_list_deallocatorINS_9allocatorIS9_EEEEE5resetB8ue170006EDn, symObjAddr: 0x66AC, symBinAddr: 0x100006E08, symSize: 0x6C }
  - { offsetInCU: 0x16B7C, offset: 0x16B7C, size: 0x8, addend: 0x0, symName: __ZNSt3__112__hash_tableINS_17__hash_value_typeIciEENS_22__unordered_map_hasherIcS2_NS_4hashIcEENS_8equal_toIcEELb1EEENS_21__unordered_map_equalIcS2_S7_S5_Lb1EEENS_9allocatorIS2_EEE15__insert_uniqueB8ue170006ERKNS_4pairIKciEE, symObjAddr: 0x6748, symBinAddr: 0x100006EA4, symSize: 0x50 }
  - { offsetInCU: 0x16BB0, offset: 0x16BB0, size: 0x8, addend: 0x0, symName: __ZNKSt3__125__hash_map_const_iteratorINS_21__hash_const_iteratorIPNS_11__hash_nodeINS_17__hash_value_typeIciEEPvEEEEEdeB8ue170006Ev, symObjAddr: 0x6798, symBinAddr: 0x100006EF4, symSize: 0x28 }
  - { offsetInCU: 0x16BD5, offset: 0x16BD5, size: 0x8, addend: 0x0, symName: __ZNSt3__125__hash_map_const_iteratorINS_21__hash_const_iteratorIPNS_11__hash_nodeINS_17__hash_value_typeIciEEPvEEEEEppB8ue170006Ev, symObjAddr: 0x67C0, symBinAddr: 0x100006F1C, symSize: 0x2C }
  - { offsetInCU: 0x16BF9, offset: 0x16BF9, size: 0x8, addend: 0x0, symName: __ZNSt3__112__hash_tableINS_17__hash_value_typeIciEENS_22__unordered_map_hasherIcS2_NS_4hashIcEENS_8equal_toIcEELb1EEENS_21__unordered_map_equalIcS2_S7_S5_Lb1EEENS_9allocatorIS2_EEE25__emplace_unique_key_argsIcJRKNS_4pairIKciEEEEENSF_INS_15__hash_iteratorIPNS_11__hash_nodeIS2_PvEEEEbEERKT_DpOT0_, symObjAddr: 0x6850, symBinAddr: 0x100006FAC, symSize: 0x4A0 }
  - { offsetInCU: 0x16CD8, offset: 0x16CD8, size: 0x8, addend: 0x0, symName: __ZNSt3__122__hash_key_value_typesINS_17__hash_value_typeIciEEE9__get_keyB8ue170006ERKNS_4pairIKciEE, symObjAddr: 0x6CF0, symBinAddr: 0x10000744C, symSize: 0x14 }
  - { offsetInCU: 0x16CFA, offset: 0x16CFA, size: 0x8, addend: 0x0, symName: __ZNSt3__112__hash_tableINS_17__hash_value_typeIciEENS_22__unordered_map_hasherIcS2_NS_4hashIcEENS_8equal_toIcEELb1EEENS_21__unordered_map_equalIcS2_S7_S5_Lb1EEENS_9allocatorIS2_EEE21__construct_node_hashIRKNS_4pairIKciEEJEEENS_10unique_ptrINS_11__hash_nodeIS2_PvEENS_22__hash_node_destructorINSB_ISN_EEEEEEmOT_DpOT0_, symObjAddr: 0x6D04, symBinAddr: 0x100007460, symSize: 0x140 }
  - { offsetInCU: 0x16D6C, offset: 0x16D6C, size: 0x8, addend: 0x0, symName: __ZNSt3__116allocator_traitsINS_9allocatorINS_11__hash_nodeINS_17__hash_value_typeIciEEPvEEEEE9constructB8ue170006INS_4pairIKciEEJRKSC_EvEEvRS7_PT_DpOT0_, symObjAddr: 0x6E44, symBinAddr: 0x1000075A0, symSize: 0x34 }
  - { offsetInCU: 0x16DC3, offset: 0x16DC3, size: 0x8, addend: 0x0, symName: __ZNSt3__19allocatorINS_11__hash_nodeINS_17__hash_value_typeIciEEPvEEE9constructB8ue170006INS_4pairIKciEEJRKSA_EEEvPT_DpOT0_, symObjAddr: 0x6E78, symBinAddr: 0x1000075D4, symSize: 0x28 }
  - { offsetInCU: 0x16E18, offset: 0x16E18, size: 0x8, addend: 0x0, symName: __ZNKSt3__121__hash_const_iteratorIPNS_11__hash_nodeINS_17__hash_value_typeIciEEPvEEEptB8ue170006Ev, symObjAddr: 0x6EA0, symBinAddr: 0x1000075FC, symSize: 0x30 }
  - { offsetInCU: 0x16E3D, offset: 0x16E3D, size: 0x8, addend: 0x0, symName: __ZNSt3__114pointer_traitsIPKNS_17__hash_value_typeIciEEE10pointer_toB8ue170006ERS3_, symObjAddr: 0x6ED0, symBinAddr: 0x10000762C, symSize: 0x14 }
  - { offsetInCU: 0x16E60, offset: 0x16E60, size: 0x8, addend: 0x0, symName: __ZNSt3__121__hash_const_iteratorIPNS_11__hash_nodeINS_17__hash_value_typeIciEEPvEEEppB8ue170006Ev, symObjAddr: 0x6EE4, symBinAddr: 0x100007640, symSize: 0x20 }
  - { offsetInCU: 0x16E84, offset: 0x16E84, size: 0x8, addend: 0x0, symName: __ZNKSt3__112__hash_tableINS_17__hash_value_typeIciEENS_22__unordered_map_hasherIcS2_NS_4hashIcEENS_8equal_toIcEELb1EEENS_21__unordered_map_equalIcS2_S7_S5_Lb1EEENS_9allocatorIS2_EEE5beginEv, symObjAddr: 0x6F04, symBinAddr: 0x100007660, symSize: 0x38 }
  - { offsetInCU: 0x16EAB, offset: 0x16EAB, size: 0x8, addend: 0x0, symName: __ZNSt3__125__hash_map_const_iteratorINS_21__hash_const_iteratorIPNS_11__hash_nodeINS_17__hash_value_typeIciEEPvEEEEEC1B8ue170006ES8_, symObjAddr: 0x6F3C, symBinAddr: 0x100007698, symSize: 0x34 }
  - { offsetInCU: 0x16EE3, offset: 0x16EE3, size: 0x8, addend: 0x0, symName: __ZNKSt3__117__compressed_pairINS_16__hash_node_baseIPNS_11__hash_nodeINS_17__hash_value_typeIciEEPvEEEENS_9allocatorIS6_EEE5firstB8ue170006Ev, symObjAddr: 0x6F70, symBinAddr: 0x1000076CC, symSize: 0x24 }
  - { offsetInCU: 0x16F08, offset: 0x16F08, size: 0x8, addend: 0x0, symName: __ZNSt3__121__hash_const_iteratorIPNS_11__hash_nodeINS_17__hash_value_typeIciEEPvEEEC1B8ue170006EPNS_16__hash_node_baseIS6_EE, symObjAddr: 0x6F94, symBinAddr: 0x1000076F0, symSize: 0x34 }
  - { offsetInCU: 0x16F40, offset: 0x16F40, size: 0x8, addend: 0x0, symName: __ZNKSt3__122__compressed_pair_elemINS_16__hash_node_baseIPNS_11__hash_nodeINS_17__hash_value_typeIciEEPvEEEELi0ELb0EE5__getB8ue170006Ev, symObjAddr: 0x6FC8, symBinAddr: 0x100007724, symSize: 0x14 }
  - { offsetInCU: 0x16F65, offset: 0x16F65, size: 0x8, addend: 0x0, symName: __ZNSt3__121__hash_const_iteratorIPNS_11__hash_nodeINS_17__hash_value_typeIciEEPvEEEC2B8ue170006EPNS_16__hash_node_baseIS6_EE, symObjAddr: 0x6FDC, symBinAddr: 0x100007738, symSize: 0x20 }
  - { offsetInCU: 0x16F9D, offset: 0x16F9D, size: 0x8, addend: 0x0, symName: __ZNSt3__125__hash_map_const_iteratorINS_21__hash_const_iteratorIPNS_11__hash_nodeINS_17__hash_value_typeIciEEPvEEEEEC2B8ue170006ES8_, symObjAddr: 0x6FFC, symBinAddr: 0x100007758, symSize: 0x20 }
  - { offsetInCU: 0x16FD4, offset: 0x16FD4, size: 0x8, addend: 0x0, symName: __ZNKSt3__112__hash_tableINS_17__hash_value_typeIciEENS_22__unordered_map_hasherIcS2_NS_4hashIcEENS_8equal_toIcEELb1EEENS_21__unordered_map_equalIcS2_S7_S5_Lb1EEENS_9allocatorIS2_EEE3endEv, symObjAddr: 0x701C, symBinAddr: 0x100007778, symSize: 0x2C }
  - { offsetInCU: 0x16FFB, offset: 0x16FFB, size: 0x8, addend: 0x0, symName: __ZNSt3__112__hash_tableINS_17__hash_value_typeIciEENS_22__unordered_map_hasherIcS2_NS_4hashIcEENS_8equal_toIcEELb1EEENS_21__unordered_map_equalIcS2_S7_S5_Lb1EEENS_9allocatorIS2_EEED2Ev, symObjAddr: 0x7048, symBinAddr: 0x1000077A4, symSize: 0x48 }
  - { offsetInCU: 0x17025, offset: 0x17025, size: 0x8, addend: 0x0, symName: __ZNSt3__112__hash_tableINS_17__hash_value_typeIciEENS_22__unordered_map_hasherIcS2_NS_4hashIcEENS_8equal_toIcEELb1EEENS_21__unordered_map_equalIcS2_S7_S5_Lb1EEENS_9allocatorIS2_EEE17__deallocate_nodeEPNS_16__hash_node_baseIPNS_11__hash_nodeIS2_PvEEEE, symObjAddr: 0x7090, symBinAddr: 0x1000077EC, symSize: 0xA4 }
  - { offsetInCU: 0x170AC, offset: 0x170AC, size: 0x8, addend: 0x0, symName: __ZNKSt3__113basic_ostreamIcNS_11char_traitsIcEEE6sentrycvbB8ue170006Ev, symObjAddr: 0x7320, symBinAddr: 0x100007A7C, symSize: 0x1C }
  - { offsetInCU: 0x170D1, offset: 0x170D1, size: 0x8, addend: 0x0, symName: __ZNSt3__119ostreambuf_iteratorIcNS_11char_traitsIcEEEC1B8ue170006ERNS_13basic_ostreamIcS2_EE, symObjAddr: 0x757C, symBinAddr: 0x100007CD8, symSize: 0x34 }
  - { offsetInCU: 0x17108, offset: 0x17108, size: 0x8, addend: 0x0, symName: __ZNKSt3__18ios_base5flagsB8ue170006Ev, symObjAddr: 0x75B0, symBinAddr: 0x100007D0C, symSize: 0x18 }
  - { offsetInCU: 0x1712E, offset: 0x1712E, size: 0x8, addend: 0x0, symName: __ZNKSt3__19basic_iosIcNS_11char_traitsIcEEE4fillB8ue170006Ev, symObjAddr: 0x75C8, symBinAddr: 0x100007D24, symSize: 0x64 }
  - { offsetInCU: 0x17155, offset: 0x17155, size: 0x8, addend: 0x0, symName: __ZNKSt3__119ostreambuf_iteratorIcNS_11char_traitsIcEEE6failedB8ue170006Ev, symObjAddr: 0x762C, symBinAddr: 0x100007D88, symSize: 0x24 }
  - { offsetInCU: 0x1717A, offset: 0x1717A, size: 0x8, addend: 0x0, symName: __ZNSt3__19basic_iosIcNS_11char_traitsIcEEE8setstateB8ue170006Ej, symObjAddr: 0x7650, symBinAddr: 0x100007DAC, symSize: 0x2C }
  - { offsetInCU: 0x171AE, offset: 0x171AE, size: 0x8, addend: 0x0, symName: __ZNKSt3__18ios_base5widthB8ue170006Ev, symObjAddr: 0x767C, symBinAddr: 0x100007DD8, symSize: 0x18 }
  - { offsetInCU: 0x171D5, offset: 0x171D5, size: 0x8, addend: 0x0, symName: __ZNSt3__115basic_streambufIcNS_11char_traitsIcEEE5sputnB8ue170006EPKcl, symObjAddr: 0x7694, symBinAddr: 0x100007DF0, symSize: 0x3C }
  - { offsetInCU: 0x17216, offset: 0x17216, size: 0x8, addend: 0x0, symName: __ZNSt3__112basic_stringIcNS_11char_traitsIcEENS_9allocatorIcEEEC1B8ue170006Emc, symObjAddr: 0x76D0, symBinAddr: 0x100007E2C, symSize: 0x3C }
  - { offsetInCU: 0x1725D, offset: 0x1725D, size: 0x8, addend: 0x0, symName: __ZNKSt3__112basic_stringIcNS_11char_traitsIcEENS_9allocatorIcEEE4dataB8ue170006Ev, symObjAddr: 0x770C, symBinAddr: 0x100007E68, symSize: 0x28 }
  - { offsetInCU: 0x17282, offset: 0x17282, size: 0x8, addend: 0x0, symName: __ZNSt3__18ios_base5widthB8ue170006El, symObjAddr: 0x7734, symBinAddr: 0x100007E90, symSize: 0x2C }
  - { offsetInCU: 0x172C7, offset: 0x172C7, size: 0x8, addend: 0x0, symName: __ZNSt3__112basic_stringIcNS_11char_traitsIcEENS_9allocatorIcEEEC2B8ue170006Emc, symObjAddr: 0x7760, symBinAddr: 0x100007EBC, symSize: 0x4C }
  - { offsetInCU: 0x1730E, offset: 0x1730E, size: 0x8, addend: 0x0, symName: __ZNSt3__117__compressed_pairINS_12basic_stringIcNS_11char_traitsIcEENS_9allocatorIcEEE5__repES5_EC1B8ue170006INS_18__default_init_tagESA_EEOT_OT0_, symObjAddr: 0x77AC, symBinAddr: 0x100007F08, symSize: 0x3C }
  - { offsetInCU: 0x17365, offset: 0x17365, size: 0x8, addend: 0x0, symName: __ZNSt3__117__compressed_pairINS_12basic_stringIcNS_11char_traitsIcEENS_9allocatorIcEEE5__repES5_EC2B8ue170006INS_18__default_init_tagESA_EEOT_OT0_, symObjAddr: 0x77E8, symBinAddr: 0x100007F44, symSize: 0x3C }
  - { offsetInCU: 0x173BC, offset: 0x173BC, size: 0x8, addend: 0x0, symName: __ZNSt3__122__compressed_pair_elemINS_12basic_stringIcNS_11char_traitsIcEENS_9allocatorIcEEE5__repELi0ELb0EEC2B8ue170006ENS_18__default_init_tagE, symObjAddr: 0x7824, symBinAddr: 0x100007F80, symSize: 0x14 }
  - { offsetInCU: 0x173F0, offset: 0x173F0, size: 0x8, addend: 0x0, symName: __ZNSt3__122__compressed_pair_elemINS_9allocatorIcEELi1ELb1EEC2B8ue170006ENS_18__default_init_tagE, symObjAddr: 0x7838, symBinAddr: 0x100007F94, symSize: 0x2C }
  - { offsetInCU: 0x17424, offset: 0x17424, size: 0x8, addend: 0x0, symName: __ZNSt3__19allocatorIcEC2B8ue170006Ev, symObjAddr: 0x7864, symBinAddr: 0x100007FC0, symSize: 0x2C }
  - { offsetInCU: 0x1744D, offset: 0x1744D, size: 0x8, addend: 0x0, symName: __ZNSt3__116__non_trivial_ifILb1ENS_9allocatorIcEEEC2B8ue170006Ev, symObjAddr: 0x7890, symBinAddr: 0x100007FEC, symSize: 0x14 }
  - { offsetInCU: 0x17476, offset: 0x17476, size: 0x8, addend: 0x0, symName: __ZNKSt3__112basic_stringIcNS_11char_traitsIcEENS_9allocatorIcEEE13__get_pointerB8ue170006Ev, symObjAddr: 0x78B8, symBinAddr: 0x100008014, symSize: 0x54 }
  - { offsetInCU: 0x1749B, offset: 0x1749B, size: 0x8, addend: 0x0, symName: __ZNKSt3__112basic_stringIcNS_11char_traitsIcEENS_9allocatorIcEEE18__get_long_pointerB8ue170006Ev, symObjAddr: 0x790C, symBinAddr: 0x100008068, symSize: 0x28 }
  - { offsetInCU: 0x174C0, offset: 0x174C0, size: 0x8, addend: 0x0, symName: __ZNKSt3__112basic_stringIcNS_11char_traitsIcEENS_9allocatorIcEEE19__get_short_pointerB8ue170006Ev, symObjAddr: 0x7934, symBinAddr: 0x100008090, symSize: 0x28 }
  - { offsetInCU: 0x174E5, offset: 0x174E5, size: 0x8, addend: 0x0, symName: __ZNSt3__114pointer_traitsIPKcE10pointer_toB8ue170006ERS1_, symObjAddr: 0x795C, symBinAddr: 0x1000080B8, symSize: 0x14 }
  - { offsetInCU: 0x17508, offset: 0x17508, size: 0x8, addend: 0x0, symName: __ZNSt3__119ostreambuf_iteratorIcNS_11char_traitsIcEEEC2B8ue170006ERNS_13basic_ostreamIcS2_EE, symObjAddr: 0x7970, symBinAddr: 0x1000080CC, symSize: 0x54 }
  - { offsetInCU: 0x1753E, offset: 0x1753E, size: 0x8, addend: 0x0, symName: __ZNKSt3__19basic_iosIcNS_11char_traitsIcEEE5rdbufB8ue170006Ev, symObjAddr: 0x79C4, symBinAddr: 0x100008120, symSize: 0x24 }
  - { offsetInCU: 0x17565, offset: 0x17565, size: 0x8, addend: 0x0, symName: __ZNKSt3__18ios_base5rdbufB8ue170006Ev, symObjAddr: 0x79E8, symBinAddr: 0x100008144, symSize: 0x18 }
  - { offsetInCU: 0x1758A, offset: 0x1758A, size: 0x8, addend: 0x0, symName: __ZNSt3__111char_traitsIcE11eq_int_typeB8ue170006Eii, symObjAddr: 0x7A00, symBinAddr: 0x10000815C, symSize: 0x28 }
  - { offsetInCU: 0x175BD, offset: 0x175BD, size: 0x8, addend: 0x0, symName: __ZNSt3__111char_traitsIcE3eofB8ue170006Ev, symObjAddr: 0x7A28, symBinAddr: 0x100008184, symSize: 0x8 }
  - { offsetInCU: 0x175D0, offset: 0x175D0, size: 0x8, addend: 0x0, symName: __ZNKSt3__19basic_iosIcNS_11char_traitsIcEEE5widenB8ue170006Ec, symObjAddr: 0x7A30, symBinAddr: 0x10000818C, symSize: 0x84 }
  - { offsetInCU: 0x1763D, offset: 0x1763D, size: 0x8, addend: 0x0, symName: __ZNKSt3__15ctypeIcE5widenB8ue170006Ec, symObjAddr: 0x7AE0, symBinAddr: 0x10000823C, symSize: 0x38 }
  - { offsetInCU: 0x17670, offset: 0x17670, size: 0x8, addend: 0x0, symName: __ZNSt3__18ios_base8setstateB8ue170006Ej, symObjAddr: 0x7B18, symBinAddr: 0x100008274, symSize: 0x34 }
  - { offsetInCU: 0x176A5, offset: 0x176A5, size: 0x8, addend: 0x0, symName: __ZNSt3__112__hash_tableIcNS_4hashIcEENS_8equal_toIcEENS_9allocatorIcEEE4findIcEENS_15__hash_iteratorIPNS_11__hash_nodeIcPvEEEERKT_, symObjAddr: 0x7B4C, symBinAddr: 0x1000082A8, symSize: 0x1B4 }
  - { offsetInCU: 0x1772F, offset: 0x1772F, size: 0x8, addend: 0x0, symName: __ZNSt3__121__hash_const_iteratorIPNS_11__hash_nodeIcPvEEEC1B8ue170006ERKNS_15__hash_iteratorIS4_EE, symObjAddr: 0x7D00, symBinAddr: 0x10000845C, symSize: 0x34 }
  - { offsetInCU: 0x17766, offset: 0x17766, size: 0x8, addend: 0x0, symName: __ZNSt3__112__hash_tableIcNS_4hashIcEENS_8equal_toIcEENS_9allocatorIcEEE3endEv, symObjAddr: 0x7D34, symBinAddr: 0x100008490, symSize: 0x2C }
  - { offsetInCU: 0x1778D, offset: 0x1778D, size: 0x8, addend: 0x0, symName: __ZNSt3__121__hash_const_iteratorIPNS_11__hash_nodeIcPvEEEC2B8ue170006ERKNS_15__hash_iteratorIS4_EE, symObjAddr: 0x7D60, symBinAddr: 0x1000084BC, symSize: 0x24 }
  - { offsetInCU: 0x177C4, offset: 0x177C4, size: 0x8, addend: 0x0, symName: __ZNSt3__112__hash_tableINS_17__hash_value_typeIciEENS_22__unordered_map_hasherIcS2_NS_4hashIcEENS_8equal_toIcEELb1EEENS_21__unordered_map_equalIcS2_S7_S5_Lb1EEENS_9allocatorIS2_EEEaSERKSD_, symObjAddr: 0x7D84, symBinAddr: 0x1000084E0, symSize: 0xB8 }
  - { offsetInCU: 0x177FA, offset: 0x177FA, size: 0x8, addend: 0x0, symName: __ZNSt3__112__hash_tableINS_17__hash_value_typeIciEENS_22__unordered_map_hasherIcS2_NS_4hashIcEENS_8equal_toIcEELb1EEENS_21__unordered_map_equalIcS2_S7_S5_Lb1EEENS_9allocatorIS2_EEE19__copy_assign_allocB8ue170006ERKSD_, symObjAddr: 0x7E3C, symBinAddr: 0x100008598, symSize: 0x2C }
  - { offsetInCU: 0x1782E, offset: 0x1782E, size: 0x8, addend: 0x0, symName: __ZNKSt3__112__hash_tableINS_17__hash_value_typeIciEENS_22__unordered_map_hasherIcS2_NS_4hashIcEENS_8equal_toIcEELb1EEENS_21__unordered_map_equalIcS2_S7_S5_Lb1EEENS_9allocatorIS2_EEE6key_eqB8ue170006Ev, symObjAddr: 0x7E68, symBinAddr: 0x1000085C4, symSize: 0x28 }
  - { offsetInCU: 0x17853, offset: 0x17853, size: 0x8, addend: 0x0, symName: __ZNKSt3__112__hash_tableINS_17__hash_value_typeIciEENS_22__unordered_map_hasherIcS2_NS_4hashIcEENS_8equal_toIcEELb1EEENS_21__unordered_map_equalIcS2_S7_S5_Lb1EEENS_9allocatorIS2_EEE15max_load_factorB8ue170006Ev, symObjAddr: 0x7E90, symBinAddr: 0x1000085EC, symSize: 0x2C }
  - { offsetInCU: 0x17877, offset: 0x17877, size: 0x8, addend: 0x0, symName: __ZNSt3__112__hash_tableINS_17__hash_value_typeIciEENS_22__unordered_map_hasherIcS2_NS_4hashIcEENS_8equal_toIcEELb1EEENS_21__unordered_map_equalIcS2_S7_S5_Lb1EEENS_9allocatorIS2_EEE14__assign_multiINS_21__hash_const_iteratorIPNS_11__hash_nodeIS2_PvEEEEEEvT_SL_, symObjAddr: 0x7EBC, symBinAddr: 0x100008618, symSize: 0x1B4 }
  - { offsetInCU: 0x178F8, offset: 0x178F8, size: 0x8, addend: 0x0, symName: __ZNSt3__112__hash_tableINS_17__hash_value_typeIciEENS_22__unordered_map_hasherIcS2_NS_4hashIcEENS_8equal_toIcEELb1EEENS_21__unordered_map_equalIcS2_S7_S5_Lb1EEENS_9allocatorIS2_EEE19__copy_assign_allocB8ue170006ERKSD_NS_17integral_constantIbLb0EEE, symObjAddr: 0x8070, symBinAddr: 0x1000087CC, symSize: 0x14 }
  - { offsetInCU: 0x17933, offset: 0x17933, size: 0x8, addend: 0x0, symName: __ZNKSt3__117__compressed_pairIfNS_21__unordered_map_equalIcNS_17__hash_value_typeIciEENS_8equal_toIcEENS_4hashIcEELb1EEEE6secondB8ue170006Ev, symObjAddr: 0x8084, symBinAddr: 0x1000087E0, symSize: 0x24 }
  - { offsetInCU: 0x17958, offset: 0x17958, size: 0x8, addend: 0x0, symName: __ZNKSt3__122__compressed_pair_elemINS_21__unordered_map_equalIcNS_17__hash_value_typeIciEENS_8equal_toIcEENS_4hashIcEELb1EEELi1ELb1EE5__getB8ue170006Ev, symObjAddr: 0x80A8, symBinAddr: 0x100008804, symSize: 0x14 }
  - { offsetInCU: 0x1797D, offset: 0x1797D, size: 0x8, addend: 0x0, symName: __ZNKSt3__117__compressed_pairIfNS_21__unordered_map_equalIcNS_17__hash_value_typeIciEENS_8equal_toIcEENS_4hashIcEELb1EEEE5firstB8ue170006Ev, symObjAddr: 0x80BC, symBinAddr: 0x100008818, symSize: 0x24 }
  - { offsetInCU: 0x179A2, offset: 0x179A2, size: 0x8, addend: 0x0, symName: __ZNKSt3__122__compressed_pair_elemIfLi0ELb0EE5__getB8ue170006Ev, symObjAddr: 0x80E0, symBinAddr: 0x10000883C, symSize: 0x14 }
  - { offsetInCU: 0x179C6, offset: 0x179C6, size: 0x8, addend: 0x0, symName: __ZNSt3__112__hash_tableINS_17__hash_value_typeIciEENS_22__unordered_map_hasherIcS2_NS_4hashIcEENS_8equal_toIcEELb1EEENS_21__unordered_map_equalIcS2_S7_S5_Lb1EEENS_9allocatorIS2_EEE8__detachEv, symObjAddr: 0x80F4, symBinAddr: 0x100008850, symSize: 0xA4 }
  - { offsetInCU: 0x17A29, offset: 0x17A29, size: 0x8, addend: 0x0, symName: __ZNKSt3__121__hash_const_iteratorIPNS_11__hash_nodeINS_17__hash_value_typeIciEEPvEEEdeB8ue170006Ev, symObjAddr: 0x8198, symBinAddr: 0x1000088F4, symSize: 0x2C }
  - { offsetInCU: 0x17A4E, offset: 0x17A4E, size: 0x8, addend: 0x0, symName: __ZNSt3__117__hash_value_typeIciEaSB8ue170006ERKS1_, symObjAddr: 0x81C4, symBinAddr: 0x100008920, symSize: 0x60 }
  - { offsetInCU: 0x17A81, offset: 0x17A81, size: 0x8, addend: 0x0, symName: __ZNSt3__112__hash_tableINS_17__hash_value_typeIciEENS_22__unordered_map_hasherIcS2_NS_4hashIcEENS_8equal_toIcEELb1EEENS_21__unordered_map_equalIcS2_S7_S5_Lb1EEENS_9allocatorIS2_EEE19__node_insert_multiEPNS_11__hash_nodeIS2_PvEE, symObjAddr: 0x8224, symBinAddr: 0x100008980, symSize: 0x8C }
  - { offsetInCU: 0x17AC6, offset: 0x17AC6, size: 0x8, addend: 0x0, symName: __ZNSt3__112__hash_tableINS_17__hash_value_typeIciEENS_22__unordered_map_hasherIcS2_NS_4hashIcEENS_8equal_toIcEELb1EEENS_21__unordered_map_equalIcS2_S7_S5_Lb1EEENS_9allocatorIS2_EEE14__insert_multiB8ue170006IRKNS_4pairIKciEEEENS_15__hash_iteratorIPNS_11__hash_nodeIS2_PvEEEEOT_, symObjAddr: 0x82B0, symBinAddr: 0x100008A0C, symSize: 0x34 }
  - { offsetInCU: 0x17B03, offset: 0x17B03, size: 0x8, addend: 0x0, symName: __ZNSt3__122__hash_key_value_typesINS_17__hash_value_typeIciEEE11__get_valueB8ue170006IKS2_EENS_9enable_ifIXsr17__is_same_uncvrefIT_S2_EE5valueERKNS_4pairIKciEEE4typeERS7_, symObjAddr: 0x82E4, symBinAddr: 0x100008A40, symSize: 0x24 }
  - { offsetInCU: 0x17B2F, offset: 0x17B2F, size: 0x8, addend: 0x0, symName: __ZNSt3__117__hash_value_typeIciE5__refB8ue170006Ev, symObjAddr: 0x8308, symBinAddr: 0x100008A64, symSize: 0x44 }
  - { offsetInCU: 0x17B63, offset: 0x17B63, size: 0x8, addend: 0x0, symName: __ZNSt3__14pairIRcRiEaSB8ue170006IKciLPv0EEERS3_RKNS0_IT_T0_EE, symObjAddr: 0x834C, symBinAddr: 0x100008AA8, symSize: 0x38 }
  - { offsetInCU: 0x17BAF, offset: 0x17BAF, size: 0x8, addend: 0x0, symName: __ZNSt3__14pairIRcRiEC1B8ue170006ILb1ELPv0EEES1_S2_, symObjAddr: 0x8384, symBinAddr: 0x100008AE0, symSize: 0x3C }
  - { offsetInCU: 0x17C04, offset: 0x17C04, size: 0x8, addend: 0x0, symName: __ZNSt3__14pairIRcRiEC2B8ue170006ILb1ELPv0EEES1_S2_, symObjAddr: 0x83C0, symBinAddr: 0x100008B1C, symSize: 0x2C }
  - { offsetInCU: 0x17C59, offset: 0x17C59, size: 0x8, addend: 0x0, symName: __ZNKSt3__122__unordered_map_hasherIcNS_17__hash_value_typeIciEENS_4hashIcEENS_8equal_toIcEELb1EEclB8ue170006ERKS2_, symObjAddr: 0x83EC, symBinAddr: 0x100008B48, symSize: 0x40 }
  - { offsetInCU: 0x17C8C, offset: 0x17C8C, size: 0x8, addend: 0x0, symName: __ZNSt3__112__hash_tableINS_17__hash_value_typeIciEENS_22__unordered_map_hasherIcS2_NS_4hashIcEENS_8equal_toIcEELb1EEENS_21__unordered_map_equalIcS2_S7_S5_Lb1EEENS_9allocatorIS2_EEE27__node_insert_multi_prepareEmRS2_, symObjAddr: 0x842C, symBinAddr: 0x100008B88, symSize: 0x29C }
  - { offsetInCU: 0x17D1C, offset: 0x17D1C, size: 0x8, addend: 0x0, symName: __ZNSt3__112__hash_tableINS_17__hash_value_typeIciEENS_22__unordered_map_hasherIcS2_NS_4hashIcEENS_8equal_toIcEELb1EEENS_21__unordered_map_equalIcS2_S7_S5_Lb1EEENS_9allocatorIS2_EEE27__node_insert_multi_performEPNS_11__hash_nodeIS2_PvEEPNS_16__hash_node_baseISH_EE, symObjAddr: 0x86C8, symBinAddr: 0x100008E24, symSize: 0x1B8 }
  - { offsetInCU: 0x17D9D, offset: 0x17D9D, size: 0x8, addend: 0x0, symName: __ZNSt3__112__hash_tableINS_17__hash_value_typeIciEENS_22__unordered_map_hasherIcS2_NS_4hashIcEENS_8equal_toIcEELb1EEENS_21__unordered_map_equalIcS2_S7_S5_Lb1EEENS_9allocatorIS2_EEE14__rehash_multiB8ue170006Em, symObjAddr: 0x8880, symBinAddr: 0x100008FDC, symSize: 0x2C }
  - { offsetInCU: 0x17DD1, offset: 0x17DD1, size: 0x8, addend: 0x0, symName: __ZNKSt3__121__unordered_map_equalIcNS_17__hash_value_typeIciEENS_8equal_toIcEENS_4hashIcEELb1EEclB8ue170006ERKS2_S9_, symObjAddr: 0x88AC, symBinAddr: 0x100009008, symSize: 0x54 }
  - { offsetInCU: 0x17E13, offset: 0x17E13, size: 0x8, addend: 0x0, symName: __ZNSt3__112__hash_tableINS_17__hash_value_typeIciEENS_22__unordered_map_hasherIcS2_NS_4hashIcEENS_8equal_toIcEELb1EEENS_21__unordered_map_equalIcS2_S7_S5_Lb1EEENS_9allocatorIS2_EEE8__rehashILb0EEEvm, symObjAddr: 0x8900, symBinAddr: 0x10000905C, symSize: 0x1A8 }
  - { offsetInCU: 0x17E61, offset: 0x17E61, size: 0x8, addend: 0x0, symName: __ZNSt3__112__hash_tableINS_17__hash_value_typeIciEENS_22__unordered_map_hasherIcS2_NS_4hashIcEENS_8equal_toIcEELb1EEENS_21__unordered_map_equalIcS2_S7_S5_Lb1EEENS_9allocatorIS2_EEE11__do_rehashILb0EEEvm, symObjAddr: 0x8AA8, symBinAddr: 0x100009204, symSize: 0x310 }
  - { offsetInCU: 0x17F46, offset: 0x17F46, size: 0x8, addend: 0x0, symName: __ZNSt3__112__hash_tableINS_17__hash_value_typeIciEENS_22__unordered_map_hasherIcS2_NS_4hashIcEENS_8equal_toIcEELb1EEENS_21__unordered_map_equalIcS2_S7_S5_Lb1EEENS_9allocatorIS2_EEE15__emplace_multiIJRKNS_4pairIKciEEEEENS_15__hash_iteratorIPNS_11__hash_nodeIS2_PvEEEEDpOT_, symObjAddr: 0x8DB8, symBinAddr: 0x100009514, symSize: 0x94 }
  - { offsetInCU: 0x17FA4, offset: 0x17FA4, size: 0x8, addend: 0x0, symName: __ZNSt3__112__hash_tableINS_17__hash_value_typeIciEENS_22__unordered_map_hasherIcS2_NS_4hashIcEENS_8equal_toIcEELb1EEENS_21__unordered_map_equalIcS2_S7_S5_Lb1EEENS_9allocatorIS2_EEE16__construct_nodeIJRKNS_4pairIKciEEEEENS_10unique_ptrINS_11__hash_nodeIS2_PvEENS_22__hash_node_destructorINSB_ISN_EEEEEEDpOT_, symObjAddr: 0x8E4C, symBinAddr: 0x1000095A8, symSize: 0x168 }
  - { offsetInCU: 0x18004, offset: 0x18004, size: 0x8, addend: 0x0, symName: __ZNSt3__16vectorIiNS_9allocatorIiEEE9__end_capB8ue170006Ev, symObjAddr: 0x8FB4, symBinAddr: 0x100009710, symSize: 0x28 }
  - { offsetInCU: 0x18029, offset: 0x18029, size: 0x8, addend: 0x0, symName: __ZNSt3__16vectorIiNS_9allocatorIiEEE22__construct_one_at_endB8ue170006IJRKiEEEvDpOT_, symObjAddr: 0x8FDC, symBinAddr: 0x100009738, symSize: 0x90 }
  - { offsetInCU: 0x18076, offset: 0x18076, size: 0x8, addend: 0x0, symName: __ZNSt3__16vectorIiNS_9allocatorIiEEE21__push_back_slow_pathIRKiEEvOT_, symObjAddr: 0x906C, symBinAddr: 0x1000097C8, symSize: 0xD8 }
  - { offsetInCU: 0x180D3, offset: 0x180D3, size: 0x8, addend: 0x0, symName: __ZNSt3__117__compressed_pairIPiNS_9allocatorIiEEE5firstB8ue170006Ev, symObjAddr: 0x9144, symBinAddr: 0x1000098A0, symSize: 0x24 }
  - { offsetInCU: 0x180F8, offset: 0x180F8, size: 0x8, addend: 0x0, symName: __ZNSt3__122__compressed_pair_elemIPiLi0ELb0EE5__getB8ue170006Ev, symObjAddr: 0x9168, symBinAddr: 0x1000098C4, symSize: 0x14 }
  - { offsetInCU: 0x18136, offset: 0x18136, size: 0x8, addend: 0x0, symName: __ZNSt3__16vectorIiNS_9allocatorIiEEE21_ConstructTransactionC1B8ue170006ERS3_m, symObjAddr: 0x917C, symBinAddr: 0x1000098D8, symSize: 0x3C }
  - { offsetInCU: 0x1817D, offset: 0x1817D, size: 0x8, addend: 0x0, symName: __ZNSt3__116allocator_traitsINS_9allocatorIiEEE9constructB8ue170006IiJRKiEvEEvRS2_PT_DpOT0_, symObjAddr: 0x91B8, symBinAddr: 0x100009914, symSize: 0x34 }
  - { offsetInCU: 0x181D4, offset: 0x181D4, size: 0x8, addend: 0x0, symName: __ZNSt3__16vectorIiNS_9allocatorIiEEE7__allocB8ue170006Ev, symObjAddr: 0x91EC, symBinAddr: 0x100009948, symSize: 0x28 }
  - { offsetInCU: 0x181F9, offset: 0x181F9, size: 0x8, addend: 0x0, symName: __ZNSt3__16vectorIiNS_9allocatorIiEEE21_ConstructTransactionD1B8ue170006Ev, symObjAddr: 0x9228, symBinAddr: 0x100009984, symSize: 0x2C }
  - { offsetInCU: 0x18222, offset: 0x18222, size: 0x8, addend: 0x0, symName: __ZNSt3__16vectorIiNS_9allocatorIiEEE21_ConstructTransactionC2B8ue170006ERS3_m, symObjAddr: 0x9254, symBinAddr: 0x1000099B0, symSize: 0x44 }
  - { offsetInCU: 0x18269, offset: 0x18269, size: 0x8, addend: 0x0, symName: __ZNSt3__19allocatorIiE9constructB8ue170006IiJRKiEEEvPT_DpOT0_, symObjAddr: 0x9298, symBinAddr: 0x1000099F4, symSize: 0x28 }
  - { offsetInCU: 0x182BE, offset: 0x182BE, size: 0x8, addend: 0x0, symName: __ZNSt3__117__compressed_pairIPiNS_9allocatorIiEEE6secondB8ue170006Ev, symObjAddr: 0x92C0, symBinAddr: 0x100009A1C, symSize: 0x24 }
  - { offsetInCU: 0x182E3, offset: 0x182E3, size: 0x8, addend: 0x0, symName: __ZNSt3__122__compressed_pair_elemINS_9allocatorIiEELi1ELb1EE5__getB8ue170006Ev, symObjAddr: 0x92E4, symBinAddr: 0x100009A40, symSize: 0x14 }
  - { offsetInCU: 0x18308, offset: 0x18308, size: 0x8, addend: 0x0, symName: __ZNSt3__16vectorIiNS_9allocatorIiEEE21_ConstructTransactionD2B8ue170006Ev, symObjAddr: 0x92F8, symBinAddr: 0x100009A54, symSize: 0x20 }
  - { offsetInCU: 0x18330, offset: 0x18330, size: 0x8, addend: 0x0, symName: __ZNKSt3__16vectorIiNS_9allocatorIiEEE11__recommendB8ue170006Em, symObjAddr: 0x9318, symBinAddr: 0x100009A74, symSize: 0xB4 }
  - { offsetInCU: 0x18384, offset: 0x18384, size: 0x8, addend: 0x0, symName: __ZNSt3__114__split_bufferIiRNS_9allocatorIiEEEC1EmmS3_, symObjAddr: 0x93CC, symBinAddr: 0x100009B28, symSize: 0x44 }
  - { offsetInCU: 0x183D9, offset: 0x183D9, size: 0x8, addend: 0x0, symName: __ZNSt3__114__split_bufferIiRNS_9allocatorIiEEED1Ev, symObjAddr: 0x9520, symBinAddr: 0x100009C7C, symSize: 0x2C }
  - { offsetInCU: 0x18403, offset: 0x18403, size: 0x8, addend: 0x0, symName: __ZNKSt3__16vectorIiNS_9allocatorIiEEE8max_sizeEv, symObjAddr: 0x954C, symBinAddr: 0x100009CA8, symSize: 0x60 }
  - { offsetInCU: 0x1842A, offset: 0x1842A, size: 0x8, addend: 0x0, symName: __ZNKSt3__16vectorIiNS_9allocatorIiEEE20__throw_length_errorB8ue170006Ev, symObjAddr: 0x95AC, symBinAddr: 0x100009D08, symSize: 0x1C }
  - { offsetInCU: 0x1844F, offset: 0x1844F, size: 0x8, addend: 0x0, symName: __ZNKSt3__16vectorIiNS_9allocatorIiEEE8capacityB8ue170006Ev, symObjAddr: 0x95C8, symBinAddr: 0x100009D24, symSize: 0x40 }
  - { offsetInCU: 0x1847E, offset: 0x1847E, size: 0x8, addend: 0x0, symName: __ZNSt3__116allocator_traitsINS_9allocatorIiEEE8max_sizeB8ue170006IS2_vEEmRKS2_, symObjAddr: 0x9634, symBinAddr: 0x100009D90, symSize: 0x24 }
  - { offsetInCU: 0x184AC, offset: 0x184AC, size: 0x8, addend: 0x0, symName: __ZNKSt3__16vectorIiNS_9allocatorIiEEE7__allocB8ue170006Ev, symObjAddr: 0x9658, symBinAddr: 0x100009DB4, symSize: 0x28 }
  - { offsetInCU: 0x184D1, offset: 0x184D1, size: 0x8, addend: 0x0, symName: __ZNSt3__114numeric_limitsIlE3maxB8ue170006Ev, symObjAddr: 0x9680, symBinAddr: 0x100009DDC, symSize: 0x14 }
  - { offsetInCU: 0x184E5, offset: 0x184E5, size: 0x8, addend: 0x0, symName: __ZNKSt3__19allocatorIiE8max_sizeB8ue170006Ev, symObjAddr: 0x96E8, symBinAddr: 0x100009E44, symSize: 0x14 }
  - { offsetInCU: 0x1850A, offset: 0x1850A, size: 0x8, addend: 0x0, symName: __ZNKSt3__117__compressed_pairIPiNS_9allocatorIiEEE6secondB8ue170006Ev, symObjAddr: 0x96FC, symBinAddr: 0x100009E58, symSize: 0x24 }
  - { offsetInCU: 0x1852F, offset: 0x1852F, size: 0x8, addend: 0x0, symName: __ZNKSt3__122__compressed_pair_elemINS_9allocatorIiEELi1ELb1EE5__getB8ue170006Ev, symObjAddr: 0x9720, symBinAddr: 0x100009E7C, symSize: 0x14 }
  - { offsetInCU: 0x18554, offset: 0x18554, size: 0x8, addend: 0x0, symName: __ZNSt3__123__libcpp_numeric_limitsIlLb1EE3maxB8ue170006Ev, symObjAddr: 0x9734, symBinAddr: 0x100009E90, symSize: 0x8 }
  - { offsetInCU: 0x18568, offset: 0x18568, size: 0x8, addend: 0x0, symName: __ZNSt12length_errorC1B8ue170006EPKc, symObjAddr: 0x97A0, symBinAddr: 0x100009EFC, symSize: 0x34 }
  - { offsetInCU: 0x1859F, offset: 0x1859F, size: 0x8, addend: 0x0, symName: __ZNSt12length_errorC2B8ue170006EPKc, symObjAddr: 0x97D4, symBinAddr: 0x100009F30, symSize: 0x4C }
  - { offsetInCU: 0x185D6, offset: 0x185D6, size: 0x8, addend: 0x0, symName: __ZNKSt3__16vectorIiNS_9allocatorIiEEE9__end_capB8ue170006Ev, symObjAddr: 0x9820, symBinAddr: 0x100009F7C, symSize: 0x28 }
  - { offsetInCU: 0x185FB, offset: 0x185FB, size: 0x8, addend: 0x0, symName: __ZNKSt3__117__compressed_pairIPiNS_9allocatorIiEEE5firstB8ue170006Ev, symObjAddr: 0x9848, symBinAddr: 0x100009FA4, symSize: 0x24 }
  - { offsetInCU: 0x18620, offset: 0x18620, size: 0x8, addend: 0x0, symName: __ZNKSt3__122__compressed_pair_elemIPiLi0ELb0EE5__getB8ue170006Ev, symObjAddr: 0x986C, symBinAddr: 0x100009FC8, symSize: 0x14 }
  - { offsetInCU: 0x18645, offset: 0x18645, size: 0x8, addend: 0x0, symName: __ZNSt3__114__split_bufferIiRNS_9allocatorIiEEEC2EmmS3_, symObjAddr: 0x9880, symBinAddr: 0x100009FDC, symSize: 0xD4 }
  - { offsetInCU: 0x186B8, offset: 0x186B8, size: 0x8, addend: 0x0, symName: __ZNSt3__117__compressed_pairIPiRNS_9allocatorIiEEEC1B8ue170006IDnS4_EEOT_OT0_, symObjAddr: 0x9954, symBinAddr: 0x10000A0B0, symSize: 0x3C }
  - { offsetInCU: 0x1870F, offset: 0x1870F, size: 0x8, addend: 0x0, symName: __ZNSt3__114__split_bufferIiRNS_9allocatorIiEEE7__allocB8ue170006Ev, symObjAddr: 0x99D0, symBinAddr: 0x10000A12C, symSize: 0x28 }
  - { offsetInCU: 0x18734, offset: 0x18734, size: 0x8, addend: 0x0, symName: __ZNSt3__114__split_bufferIiRNS_9allocatorIiEEE9__end_capB8ue170006Ev, symObjAddr: 0x99F8, symBinAddr: 0x10000A154, symSize: 0x28 }
  - { offsetInCU: 0x18759, offset: 0x18759, size: 0x8, addend: 0x0, symName: __ZNSt3__117__compressed_pairIPiRNS_9allocatorIiEEEC2B8ue170006IDnS4_EEOT_OT0_, symObjAddr: 0x9A20, symBinAddr: 0x10000A17C, symSize: 0x48 }
  - { offsetInCU: 0x187B0, offset: 0x187B0, size: 0x8, addend: 0x0, symName: __ZNSt3__122__compressed_pair_elemIRNS_9allocatorIiEELi1ELb0EEC2B8ue170006IS3_vEEOT_, symObjAddr: 0x9A68, symBinAddr: 0x10000A1C4, symSize: 0x20 }
  - { offsetInCU: 0x187F1, offset: 0x187F1, size: 0x8, addend: 0x0, symName: __ZNSt3__19allocatorIiE8allocateB8ue170006Em, symObjAddr: 0x9A88, symBinAddr: 0x10000A1E4, symSize: 0x58 }
  - { offsetInCU: 0x18824, offset: 0x18824, size: 0x8, addend: 0x0, symName: __ZNSt3__117__compressed_pairIPiRNS_9allocatorIiEEE6secondB8ue170006Ev, symObjAddr: 0x9AE0, symBinAddr: 0x10000A23C, symSize: 0x28 }
  - { offsetInCU: 0x18849, offset: 0x18849, size: 0x8, addend: 0x0, symName: __ZNSt3__122__compressed_pair_elemIRNS_9allocatorIiEELi1ELb0EE5__getB8ue170006Ev, symObjAddr: 0x9B08, symBinAddr: 0x10000A264, symSize: 0x18 }
  - { offsetInCU: 0x1886E, offset: 0x1886E, size: 0x8, addend: 0x0, symName: __ZNSt3__117__compressed_pairIPiRNS_9allocatorIiEEE5firstB8ue170006Ev, symObjAddr: 0x9B20, symBinAddr: 0x10000A27C, symSize: 0x24 }
  - { offsetInCU: 0x18893, offset: 0x18893, size: 0x8, addend: 0x0, symName: __ZNKSt3__16vectorIiNS_9allocatorIiEEE17__annotate_deleteB8ue170006Ev, symObjAddr: 0x9B44, symBinAddr: 0x10000A2A0, symSize: 0xB8 }
  - { offsetInCU: 0x188B8, offset: 0x188B8, size: 0x8, addend: 0x0, symName: __ZNSt3__116reverse_iteratorIPiEC1B8ue170006ES1_, symObjAddr: 0x9C74, symBinAddr: 0x10000A3D0, symSize: 0x34 }
  - { offsetInCU: 0x188EF, offset: 0x188EF, size: 0x8, addend: 0x0, symName: __ZNKSt3__116reverse_iteratorIPiE4baseB8ue170006Ev, symObjAddr: 0x9CA8, symBinAddr: 0x10000A404, symSize: 0x18 }
  - { offsetInCU: 0x18914, offset: 0x18914, size: 0x8, addend: 0x0, symName: __ZNKSt3__16vectorIiNS_9allocatorIiEEE14__annotate_newB8ue170006Em, symObjAddr: 0x9CFC, symBinAddr: 0x10000A458, symSize: 0xAC }
  - { offsetInCU: 0x18948, offset: 0x18948, size: 0x8, addend: 0x0, symName: __ZNKSt3__16vectorIiNS_9allocatorIiEEE31__annotate_contiguous_containerB8ue170006EPKvS5_S5_S5_, symObjAddr: 0x9DA8, symBinAddr: 0x10000A504, symSize: 0x20 }
  - { offsetInCU: 0x18999, offset: 0x18999, size: 0x8, addend: 0x0, symName: __ZNKSt3__16vectorIiNS_9allocatorIiEEE4dataB8ue170006Ev, symObjAddr: 0x9DC8, symBinAddr: 0x10000A524, symSize: 0x28 }
  - { offsetInCU: 0x189E1, offset: 0x189E1, size: 0x8, addend: 0x0, symName: __ZNKSt3__111__move_loopINS_17_ClassicAlgPolicyEEclB8ue170006INS_16reverse_iteratorIPiEES6_S6_EENS_4pairIT_T1_EES8_T0_S9_, symObjAddr: 0xA0E0, symBinAddr: 0x10000A83C, symSize: 0xA0 }
  - { offsetInCU: 0x18A4B, offset: 0x18A4B, size: 0x8, addend: 0x0, symName: __ZNSt3__18_IterOpsINS_17_ClassicAlgPolicyEE11__iter_moveB8ue170006IRNS_16reverse_iteratorIPiEEEENS_9enable_ifIXsr12is_referenceIDTdeclsr3stdE7declvalIRT_EEEEE5valueEDTclsr3stdE4movedeclsr3stdE7declvalISA_EEEEE4typeEOS9_, symObjAddr: 0xA314, symBinAddr: 0x10000AA70, symSize: 0x28 }
  - { offsetInCU: 0x18A77, offset: 0x18A77, size: 0x8, addend: 0x0, symName: __ZNKSt3__116reverse_iteratorIPiEdeB8ue170006Ev, symObjAddr: 0xA33C, symBinAddr: 0x10000AA98, symSize: 0x28 }
  - { offsetInCU: 0x18AAA, offset: 0x18AAA, size: 0x8, addend: 0x0, symName: __ZNSt3__116reverse_iteratorIPiEppB8ue170006Ev, symObjAddr: 0xA364, symBinAddr: 0x10000AAC0, symSize: 0x20 }
  - { offsetInCU: 0x18ACF, offset: 0x18ACF, size: 0x8, addend: 0x0, symName: __ZNSt3__18_IterOpsINS_17_ClassicAlgPolicyEE25__validate_iter_referenceB8ue170006IRNS_16reverse_iteratorIPiEEEEvv, symObjAddr: 0xA384, symBinAddr: 0x10000AAE0, symSize: 0x4 }
  - { offsetInCU: 0x18AED, offset: 0x18AED, size: 0x8, addend: 0x0, symName: __ZNSt3__118__unwrap_iter_implINS_16reverse_iteratorIPiEELb0EE8__unwrapB8ue170006ES3_, symObjAddr: 0xA388, symBinAddr: 0x10000AAE4, symSize: 0x24 }
  - { offsetInCU: 0x18B15, offset: 0x18B15, size: 0x8, addend: 0x0, symName: __ZNSt3__14pairINS_16reverse_iteratorIPiEES3_EC1B8ue170006IS3_S3_LPv0EEEOT_OT0_, symObjAddr: 0xA3AC, symBinAddr: 0x10000AB08, symSize: 0x3C }
  - { offsetInCU: 0x18B72, offset: 0x18B72, size: 0x8, addend: 0x0, symName: __ZNSt3__14pairINS_16reverse_iteratorIPiEES3_EC2B8ue170006IS3_S3_LPv0EEEOT_OT0_, symObjAddr: 0xA3E8, symBinAddr: 0x10000AB44, symSize: 0x34 }
  - { offsetInCU: 0x18BCF, offset: 0x18BCF, size: 0x8, addend: 0x0, symName: __ZNSt3__118__unwrap_iter_implINS_16reverse_iteratorIPiEELb0EE8__rewrapB8ue170006ES3_S3_, symObjAddr: 0xA41C, symBinAddr: 0x10000AB78, symSize: 0x2C }
  - { offsetInCU: 0x18BFD, offset: 0x18BFD, size: 0x8, addend: 0x0, symName: __ZNSt3__116reverse_iteratorIPiEC2B8ue170006ES1_, symObjAddr: 0xA448, symBinAddr: 0x10000ABA4, symSize: 0x28 }
  - { offsetInCU: 0x18C34, offset: 0x18C34, size: 0x8, addend: 0x0, symName: __ZNSt3__114__split_bufferIiRNS_9allocatorIiEEED2Ev, symObjAddr: 0xA470, symBinAddr: 0x10000ABCC, symSize: 0x8C }
  - { offsetInCU: 0x18C5F, offset: 0x18C5F, size: 0x8, addend: 0x0, symName: __ZNSt3__114__split_bufferIiRNS_9allocatorIiEEE5clearB8ue170006Ev, symObjAddr: 0xA4FC, symBinAddr: 0x10000AC58, symSize: 0x28 }
  - { offsetInCU: 0x18C84, offset: 0x18C84, size: 0x8, addend: 0x0, symName: __ZNSt3__116allocator_traitsINS_9allocatorIiEEE10deallocateB8ue170006ERS2_Pim, symObjAddr: 0xA524, symBinAddr: 0x10000AC80, symSize: 0x34 }
  - { offsetInCU: 0x18CC6, offset: 0x18CC6, size: 0x8, addend: 0x0, symName: __ZNKSt3__114__split_bufferIiRNS_9allocatorIiEEE8capacityB8ue170006Ev, symObjAddr: 0xA558, symBinAddr: 0x10000ACB4, symSize: 0x40 }
  - { offsetInCU: 0x18CEB, offset: 0x18CEB, size: 0x8, addend: 0x0, symName: __ZNSt3__114__split_bufferIiRNS_9allocatorIiEEE17__destruct_at_endB8ue170006EPi, symObjAddr: 0xA598, symBinAddr: 0x10000ACF4, symSize: 0x2C }
  - { offsetInCU: 0x18D1D, offset: 0x18D1D, size: 0x8, addend: 0x0, symName: __ZNSt3__114__split_bufferIiRNS_9allocatorIiEEE17__destruct_at_endB8ue170006EPiNS_17integral_constantIbLb0EEE, symObjAddr: 0xA5C4, symBinAddr: 0x10000AD20, symSize: 0x80 }
  - { offsetInCU: 0x18D5D, offset: 0x18D5D, size: 0x8, addend: 0x0, symName: __ZNSt3__116allocator_traitsINS_9allocatorIiEEE7destroyB8ue170006IivEEvRS2_PT_, symObjAddr: 0xA644, symBinAddr: 0x10000ADA0, symSize: 0x2C }
  - { offsetInCU: 0x18D9A, offset: 0x18D9A, size: 0x8, addend: 0x0, symName: __ZNSt3__19allocatorIiE7destroyB8ue170006EPi, symObjAddr: 0xA670, symBinAddr: 0x10000ADCC, symSize: 0x14 }
  - { offsetInCU: 0x18DCD, offset: 0x18DCD, size: 0x8, addend: 0x0, symName: __ZNSt3__19allocatorIiE10deallocateB8ue170006EPim, symObjAddr: 0xA684, symBinAddr: 0x10000ADE0, symSize: 0x40 }
  - { offsetInCU: 0x18E0E, offset: 0x18E0E, size: 0x8, addend: 0x0, symName: __ZNKSt3__114__split_bufferIiRNS_9allocatorIiEEE9__end_capB8ue170006Ev, symObjAddr: 0xA6C4, symBinAddr: 0x10000AE20, symSize: 0x28 }
  - { offsetInCU: 0x18E33, offset: 0x18E33, size: 0x8, addend: 0x0, symName: __ZNKSt3__117__compressed_pairIPiRNS_9allocatorIiEEE5firstB8ue170006Ev, symObjAddr: 0xA6EC, symBinAddr: 0x10000AE48, symSize: 0x24 }
  - { offsetInCU: 0x18E58, offset: 0x18E58, size: 0x8, addend: 0x0, symName: __ZNSt3__113unordered_mapIciNS_4hashIcEENS_8equal_toIcEENS_9allocatorINS_4pairIKciEEEEED2B8ue170006Ev, symObjAddr: 0xA710, symBinAddr: 0x10000AE6C, symSize: 0x2C }
  - { offsetInCU: 0x18E81, offset: 0x18E81, size: 0x8, addend: 0x0, symName: __ZNSt3__113unordered_setIcNS_4hashIcEENS_8equal_toIcEENS_9allocatorIcEEED2B8ue170006Ev, symObjAddr: 0xA73C, symBinAddr: 0x10000AE98, symSize: 0x2C }
  - { offsetInCU: 0x18EAA, offset: 0x18EAA, size: 0x8, addend: 0x0, symName: __ZNSt3__16vectorIiNS_9allocatorIiEEED2B8ue170006Ev, symObjAddr: 0xA768, symBinAddr: 0x10000AEC4, symSize: 0x44 }
  - { offsetInCU: 0x18ED3, offset: 0x18ED3, size: 0x8, addend: 0x0, symName: __ZNSt3__16vectorIiNS_9allocatorIiEEE16__destroy_vectorC1B8ue170006ERS3_, symObjAddr: 0xA7AC, symBinAddr: 0x10000AF08, symSize: 0x34 }
  - { offsetInCU: 0x18F0B, offset: 0x18F0B, size: 0x8, addend: 0x0, symName: __ZNSt3__16vectorIiNS_9allocatorIiEEE16__destroy_vectorclB8ue170006Ev, symObjAddr: 0xA7E0, symBinAddr: 0x10000AF3C, symSize: 0x90 }
  - { offsetInCU: 0x18F30, offset: 0x18F30, size: 0x8, addend: 0x0, symName: __ZNSt3__16vectorIiNS_9allocatorIiEEE16__destroy_vectorC2B8ue170006ERS3_, symObjAddr: 0xA870, symBinAddr: 0x10000AFCC, symSize: 0x20 }
  - { offsetInCU: 0x18F68, offset: 0x18F68, size: 0x8, addend: 0x0, symName: __ZNSt3__16vectorIiNS_9allocatorIiEEE7__clearB8ue170006Ev, symObjAddr: 0xA890, symBinAddr: 0x10000AFEC, symSize: 0x28 }
  - { offsetInCU: 0x18F8D, offset: 0x18F8D, size: 0x8, addend: 0x0, symName: __ZNSt3__16vectorIiNS_9allocatorIiEEE22__base_destruct_at_endB8ue170006EPi, symObjAddr: 0xA8B8, symBinAddr: 0x10000B014, symSize: 0x8C }
  - { offsetInCU: 0x18FD0, offset: 0x18FD0, size: 0x8, addend: 0x0, symName: __ZNSt3__111char_traitsIcE6lengthB8ue170006EPKc, symObjAddr: 0xA944, symBinAddr: 0x10000B0A0, symSize: 0x34 }
  - { offsetInCU: 0x18FF3, offset: 0x18FF3, size: 0x8, addend: 0x0, symName: __ZNSt3__112basic_stringIcNS_11char_traitsIcEENS_9allocatorIcEEEC2B8ue170006ILi0EEEPKc, symObjAddr: 0xA99C, symBinAddr: 0x10000B0F8, symSize: 0x58 }
...
