---
triple:          'arm64-apple-darwin'
binary-path:     "/Users/sunyunqi/Documents/c++ code/projects/和为K的子数组/test"
relocations:
  - { offsetInCU: 0x5C, offset: 0x5C, size: 0x8, addend: 0x0, symName: __ZNSt3__1L19piecewise_constructE, symObjAddr: 0x60A7, symBinAddr: 0x100007B3F, symSize: 0x0 }
  - { offsetInCU: 0x707F, offset: 0x707F, size: 0x8, addend: 0x0, symName: __ZNSt3__124__put_character_sequenceB8ue170006IcNS_11char_traitsIcEEEERNS_13basic_ostreamIT_T0_EES7_PKS4_m, symObjAddr: 0x5344, symBinAddr: 0x100006B9C, symSize: 0x1EC }
  - { offsetInCU: 0x8BDF, offset: 0x8BDF, size: 0x8, addend: 0x0, symName: __ZNSt3__1lsB8ue170006INS_11char_traitsIcEEEERNS_13basic_ostreamIcT_EES6_PKc, symObjAddr: 0x45C, symBinAddr: 0x100001CB4, symSize: 0x48 }
  - { offsetInCU: 0x8C25, offset: 0x8C25, size: 0x8, addend: 0x0, symName: __ZNSt3__14endlB8ue170006IcNS_11char_traitsIcEEEERNS_13basic_ostreamIT_T0_EES7_, symObjAddr: 0x4D0, symBinAddr: 0x100001D28, symSize: 0x58 }
  - { offsetInCU: 0x9615, offset: 0x9615, size: 0x8, addend: 0x0, symName: __ZNSt3__1neB8ue170006ERKNS_19__hash_map_iteratorINS_15__hash_iteratorIPNS_11__hash_nodeINS_17__hash_value_typeIiiEEPvEEEEEESB_, symObjAddr: 0x708, symBinAddr: 0x100001F60, symSize: 0x30 }
  - { offsetInCU: 0x9652, offset: 0x9652, size: 0x8, addend: 0x0, symName: __ZNSt3__122__make_exception_guardB8ue170006INS_6vectorIiNS_9allocatorIiEEE16__destroy_vectorEEENS_28__exception_guard_exceptionsIT_EES7_, symObjAddr: 0x8F4, symBinAddr: 0x10000214C, symSize: 0x40 }
  - { offsetInCU: 0x9687, offset: 0x9687, size: 0x8, addend: 0x0, symName: __ZNSt3__119__allocate_at_leastB8ue170006INS_9allocatorIiEEEENS_19__allocation_resultINS_16allocator_traitsIT_E7pointerEEERS5_m, symObjAddr: 0xCE8, symBinAddr: 0x100002540, symSize: 0x40 }
  - { offsetInCU: 0x96CA, offset: 0x96CA, size: 0x8, addend: 0x0, symName: __ZNSt3__13minB8ue170006ImEERKT_S3_S3_, symObjAddr: 0xE24, symBinAddr: 0x10000267C, symSize: 0x2C }
  - { offsetInCU: 0x990E, offset: 0x990E, size: 0x8, addend: 0x0, symName: __ZNSt3__13minB8ue170006ImNS_6__lessIvvEEEERKT_S5_S5_T0_, symObjAddr: 0xEBC, symBinAddr: 0x100002714, symSize: 0x54 }
  - { offsetInCU: 0x99AD, offset: 0x99AD, size: 0x8, addend: 0x0, symName: __ZNSt3__120__throw_length_errorB8ue170006EPKc, symObjAddr: 0xF98, symBinAddr: 0x1000027F0, symSize: 0x64 }
  - { offsetInCU: 0x99D7, offset: 0x99D7, size: 0x8, addend: 0x0, symName: __ZNSt3__117__libcpp_allocateB8ue170006Emm, symObjAddr: 0x1108, symBinAddr: 0x100002960, symSize: 0x28 }
  - { offsetInCU: 0x9A14, offset: 0x9A14, size: 0x8, addend: 0x0, symName: __ZNSt3__121__libcpp_operator_newB8ue170006IJmEEEPvDpT_, symObjAddr: 0x1130, symBinAddr: 0x100002988, symSize: 0x24 }
  - { offsetInCU: 0x9A4D, offset: 0x9A4D, size: 0x8, addend: 0x0, symName: __ZNSt3__112__to_addressB8ue170006IiEEPT_S2_, symObjAddr: 0x124C, symBinAddr: 0x100002AA4, symSize: 0x14 }
  - { offsetInCU: 0x9A82, offset: 0x9A82, size: 0x8, addend: 0x0, symName: __ZNSt3__119__libcpp_deallocateB8ue170006EPvmm, symObjAddr: 0x16E8, symBinAddr: 0x100002F40, symSize: 0x30 }
  - { offsetInCU: 0x9ACA, offset: 0x9ACA, size: 0x8, addend: 0x0, symName: __ZNSt3__127__do_deallocate_handle_sizeB8ue170006IJEEEvPvmDpT_, symObjAddr: 0x1718, symBinAddr: 0x100002F70, symSize: 0x28 }
  - { offsetInCU: 0x9B08, offset: 0x9B08, size: 0x8, addend: 0x0, symName: __ZNSt3__124__libcpp_operator_deleteB8ue170006IJPvEEEvDpT_, symObjAddr: 0x1740, symBinAddr: 0x100002F98, symSize: 0x24 }
  - { offsetInCU: 0x9B74, offset: 0x9B74, size: 0x8, addend: 0x0, symName: __ZNSt3__116forward_as_tupleB8ue170006IJiEEENS_5tupleIJDpOT_EEES4_, symObjAddr: 0x2298, symBinAddr: 0x100003AF0, symSize: 0x2C }
  - { offsetInCU: 0x9BAD, offset: 0x9BAD, size: 0x8, addend: 0x0, symName: __ZNSt3__116forward_as_tupleB8ue170006IJEEENS_5tupleIJDpOT_EEES4_, symObjAddr: 0x22C4, symBinAddr: 0x100003B1C, symSize: 0x4 }
  - { offsetInCU: 0x9BD1, offset: 0x9BD1, size: 0x8, addend: 0x0, symName: __ZNSt3__116__constrain_hashB8ue170006Emm, symObjAddr: 0x238C, symBinAddr: 0x100003BE4, symSize: 0x98 }
  - { offsetInCU: 0x9C0B, offset: 0x9C0B, size: 0x8, addend: 0x0, symName: __ZNSt3__13maxB8ue170006ImEERKT_S3_S3_, symObjAddr: 0x26D0, symBinAddr: 0x100003F28, symSize: 0x2C }
  - { offsetInCU: 0x9C4E, offset: 0x9C4E, size: 0x8, addend: 0x0, symName: __ZNSt3__116__is_hash_power2B8ue170006Em, symObjAddr: 0x26FC, symBinAddr: 0x100003F54, symSize: 0x50 }
  - { offsetInCU: 0x9CD6, offset: 0x9CD6, size: 0x8, addend: 0x0, symName: __ZNSt3__13getB8ue170006ILm0EJOiEEERNS_13tuple_elementIXT_ENS_5tupleIJDpT0_EEEE4typeERS6_, symObjAddr: 0x2F44, symBinAddr: 0x10000479C, symSize: 0x24 }
  - { offsetInCU: 0x9D19, offset: 0x9D19, size: 0x8, addend: 0x0, symName: __ZNSt3__116__next_hash_pow2B8ue170006Em, symObjAddr: 0x345C, symBinAddr: 0x100004CB4, symSize: 0x6C }
  - { offsetInCU: 0x9D61, offset: 0x9D61, size: 0x8, addend: 0x0, symName: __ZNSt3__112__libcpp_clzB8ue170006Em, symObjAddr: 0x3804, symBinAddr: 0x10000505C, symSize: 0x1C }
  - { offsetInCU: 0x9D8D, offset: 0x9D8D, size: 0x8, addend: 0x0, symName: __ZNSt3__13maxB8ue170006ImNS_6__lessIvvEEEERKT_S5_S5_T0_, symObjAddr: 0x3820, symBinAddr: 0x100005078, symSize: 0x54 }
  - { offsetInCU: 0x9E3E, offset: 0x9E3E, size: 0x8, addend: 0x0, symName: __ZNSt3__116forward_as_tupleB8ue170006IJRKiEEENS_5tupleIJDpOT_EEES6_, symObjAddr: 0x40D0, symBinAddr: 0x100005928, symSize: 0x2C }
  - { offsetInCU: 0x9E77, offset: 0x9E77, size: 0x8, addend: 0x0, symName: __ZNSt3__13getB8ue170006ILm0EJRKiEEERNS_13tuple_elementIXT_ENS_5tupleIJDpT0_EEEE4typeERS7_, symObjAddr: 0x439C, symBinAddr: 0x100005BF4, symSize: 0x24 }
  - { offsetInCU: 0x9ECF, offset: 0x9ECF, size: 0x8, addend: 0x0, symName: __ZNSt3__1neB8ue170006ERKNS_15__hash_iteratorIPNS_11__hash_nodeINS_17__hash_value_typeIiiEEPvEEEES9_, symObjAddr: 0x44C8, symBinAddr: 0x100005D20, symSize: 0x34 }
  - { offsetInCU: 0x9F0C, offset: 0x9F0C, size: 0x8, addend: 0x0, symName: __ZNSt3__1eqB8ue170006ERKNS_15__hash_iteratorIPNS_11__hash_nodeINS_17__hash_value_typeIiiEEPvEEEES9_, symObjAddr: 0x44FC, symBinAddr: 0x100005D54, symSize: 0x30 }
  - { offsetInCU: 0x9F49, offset: 0x9F49, size: 0x8, addend: 0x0, symName: __ZNSt3__130__uninitialized_allocator_copyB8ue170006INS_9allocatorIiEEPKiS4_PiEET2_RT_T0_T1_S6_, symObjAddr: 0x4BA4, symBinAddr: 0x1000063FC, symSize: 0x80 }
  - { offsetInCU: 0x9FE6, offset: 0x9FE6, size: 0x8, addend: 0x0, symName: __ZNSt3__114__unwrap_rangeB8ue170006IPKiS2_EENS_4pairIT0_S4_EET_S6_, symObjAddr: 0x4C24, symBinAddr: 0x10000647C, symSize: 0x60 }
  - { offsetInCU: 0xA032, offset: 0xA032, size: 0x8, addend: 0x0, symName: __ZNSt3__135__uninitialized_allocator_copy_implB8ue170006INS_9allocatorIiEEKiiiLPv0EEEPT2_RT_PT0_SA_S6_, symObjAddr: 0x4C84, symBinAddr: 0x1000064DC, symSize: 0x38 }
  - { offsetInCU: 0xA0B3, offset: 0xA0B3, size: 0x8, addend: 0x0, symName: __ZNSt3__113__unwrap_iterB8ue170006IPiNS_18__unwrap_iter_implIS1_Lb1EEELi0EEEDTclsrT0_8__unwrapclsr3stdE7declvalIT_EEEES5_, symObjAddr: 0x4CBC, symBinAddr: 0x100006514, symSize: 0x24 }
  - { offsetInCU: 0xA0F7, offset: 0xA0F7, size: 0x8, addend: 0x0, symName: __ZNSt3__113__rewrap_iterB8ue170006IPiS1_NS_18__unwrap_iter_implIS1_Lb1EEEEET_S4_T0_, symObjAddr: 0x4CE0, symBinAddr: 0x100006538, symSize: 0x3C }
  - { offsetInCU: 0xA14C, offset: 0xA14C, size: 0x8, addend: 0x0, symName: __ZNSt3__19make_pairB8ue170006IPKiS2_EENS_4pairINS_18__unwrap_ref_decayIT_E4typeENS4_IT0_E4typeEEEOS5_OS8_, symObjAddr: 0x4D1C, symBinAddr: 0x100006574, symSize: 0x38 }
  - { offsetInCU: 0xA19B, offset: 0xA19B, size: 0x8, addend: 0x0, symName: __ZNSt3__113__unwrap_iterB8ue170006IPKiNS_18__unwrap_iter_implIS2_Lb1EEELi0EEEDTclsrT0_8__unwrapclsr3stdE7declvalIT_EEEES6_, symObjAddr: 0x4D54, symBinAddr: 0x1000065AC, symSize: 0x24 }
  - { offsetInCU: 0xA306, offset: 0xA306, size: 0x8, addend: 0x0, symName: __ZNSt3__112__to_addressB8ue170006IKiEEPT_S3_, symObjAddr: 0x4E0C, symBinAddr: 0x100006664, symSize: 0x14 }
  - { offsetInCU: 0xA33B, offset: 0xA33B, size: 0x8, addend: 0x0, symName: __ZNSt3__14copyB8ue170006IPKiPiEET0_T_S5_S4_, symObjAddr: 0x4E20, symBinAddr: 0x100006678, symSize: 0x40 }
  - { offsetInCU: 0xA395, offset: 0xA395, size: 0x8, addend: 0x0, symName: __ZNSt3__16__copyB8ue170006INS_17_ClassicAlgPolicyEPKiS3_PiEENS_4pairIT0_T2_EES6_T1_S7_, symObjAddr: 0x4E60, symBinAddr: 0x1000066B8, symSize: 0x44 }
  - { offsetInCU: 0xA401, offset: 0xA401, size: 0x8, addend: 0x0, symName: __ZNSt3__123__dispatch_copy_or_moveB8ue170006INS_17_ClassicAlgPolicyENS_11__copy_loopIS1_EENS_14__copy_trivialEPKiS6_PiEENS_4pairIT2_T4_EES9_T3_SA_, symObjAddr: 0x4EA4, symBinAddr: 0x1000066FC, symSize: 0x44 }
  - { offsetInCU: 0xA47F, offset: 0xA47F, size: 0x8, addend: 0x0, symName: __ZNSt3__121__unwrap_and_dispatchB8ue170006INS_10__overloadINS_11__copy_loopINS_17_ClassicAlgPolicyEEENS_14__copy_trivialEEEPKiS8_PiLi0EEENS_4pairIT0_T2_EESB_T1_SC_, symObjAddr: 0x4EE8, symBinAddr: 0x100006740, symSize: 0xB4 }
  - { offsetInCU: 0xA656, offset: 0xA656, size: 0x8, addend: 0x0, symName: __ZNSt3__19make_pairB8ue170006IPKiPiEENS_4pairINS_18__unwrap_ref_decayIT_E4typeENS5_IT0_E4typeEEEOS6_OS9_, symObjAddr: 0x4FE4, symBinAddr: 0x10000683C, symSize: 0x38 }
  - { offsetInCU: 0xA6A5, offset: 0xA6A5, size: 0x8, addend: 0x0, symName: __ZNSt3__114__rewrap_rangeB8ue170006IPKiS2_EET_S3_T0_, symObjAddr: 0x501C, symBinAddr: 0x100006874, symSize: 0x2C }
  - { offsetInCU: 0xA6F1, offset: 0xA6F1, size: 0x8, addend: 0x0, symName: __ZNSt3__119__copy_trivial_implB8ue170006IKiiEENS_4pairIPT_PT0_EES4_S4_S6_, symObjAddr: 0x5048, symBinAddr: 0x1000068A0, symSize: 0x80 }
  - { offsetInCU: 0xA759, offset: 0xA759, size: 0x8, addend: 0x0, symName: __ZNSt3__119__constexpr_memmoveB8ue170006IiKiLi0EEEPT_S3_PT0_NS_15__element_countE, symObjAddr: 0x50C8, symBinAddr: 0x100006920, symSize: 0x64 }
  - { offsetInCU: 0xA7C7, offset: 0xA7C7, size: 0x8, addend: 0x0, symName: __ZNSt3__19make_pairB8ue170006IRPKiPiEENS_4pairINS_18__unwrap_ref_decayIT_E4typeENS6_IT0_E4typeEEEOS7_OSA_, symObjAddr: 0x512C, symBinAddr: 0x100006984, symSize: 0x38 }
  - { offsetInCU: 0xA816, offset: 0xA816, size: 0x8, addend: 0x0, symName: __ZNSt3__113__rewrap_iterB8ue170006IPKiS2_NS_18__unwrap_iter_implIS2_Lb1EEEEET_S5_T0_, symObjAddr: 0x5244, symBinAddr: 0x100006A9C, symSize: 0x3C }
  - { offsetInCU: 0xA8BE, offset: 0xA8BE, size: 0x8, addend: 0x0, symName: __ZNSt3__116__pad_and_outputB8ue170006IcNS_11char_traitsIcEEEENS_19ostreambuf_iteratorIT_T0_EES6_PKS4_S8_S8_RNS_8ios_baseES4_, symObjAddr: 0x5580, symBinAddr: 0x100006DD8, symSize: 0x240 }
  - { offsetInCU: 0xA98D, offset: 0xA98D, size: 0x8, addend: 0x0, symName: __ZNSt3__112__to_addressB8ue170006IKcEEPT_S3_, symObjAddr: 0x5AE8, symBinAddr: 0x100007340, symSize: 0x14 }
  - { offsetInCU: 0xA9F5, offset: 0xA9F5, size: 0x8, addend: 0x0, symName: __ZNSt3__19use_facetB8ue170006INS_5ctypeIcEEEERKT_RKNS_6localeE, symObjAddr: 0x5D68, symBinAddr: 0x1000075C0, symSize: 0x2C }
  - { offsetInCU: 0xAEC2, offset: 0xAEC2, size: 0x8, addend: 0x0, symName: __ZNSt3__118__constexpr_strlenB8ue170006EPKc, symObjAddr: 0x5E00, symBinAddr: 0x100007658, symSize: 0x24 }
  - { offsetInCU: 0xB20C, offset: 0xB20C, size: 0x8, addend: 0x0, symName: __ZSt28__throw_bad_array_new_lengthB8ue170006v, symObjAddr: 0x10D4, symBinAddr: 0x10000292C, symSize: 0x34 }
  - { offsetInCU: 0xDF3A, offset: 0xDF3A, size: 0x8, addend: 0x0, symName: _main, symObjAddr: 0x0, symBinAddr: 0x100001858, symSize: 0x120 }
  - { offsetInCU: 0xDF7F, offset: 0xDF7F, size: 0x8, addend: 0x0, symName: __ZNSt3__16vectorIiNS_9allocatorIiEEEC1B8ue170006ESt16initializer_listIiE, symObjAddr: 0x120, symBinAddr: 0x100001978, symSize: 0x3C }
  - { offsetInCU: 0xDFE9, offset: 0xDFE9, size: 0x8, addend: 0x0, symName: __ZN9Solution311subarraySumERNSt3__16vectorIiNS0_9allocatorIiEEEEi, symObjAddr: 0x15C, symBinAddr: 0x1000019B4, symSize: 0x300 }
  - { offsetInCU: 0xE092, offset: 0xE092, size: 0x8, addend: 0x0, symName: __ZNSt3__113basic_ostreamIcNS_11char_traitsIcEEElsB8ue170006EPFRS3_S4_E, symObjAddr: 0x4A4, symBinAddr: 0x100001CFC, symSize: 0x2C }
  - { offsetInCU: 0xE0C6, offset: 0xE0C6, size: 0x8, addend: 0x0, symName: __ZNSt3__16vectorIiNS_9allocatorIiEEED1B8ue170006Ev, symObjAddr: 0x528, symBinAddr: 0x100001D80, symSize: 0x2C }
  - { offsetInCU: 0xE0F0, offset: 0xE0F0, size: 0x8, addend: 0x0, symName: __ZNKSt3__16vectorIiNS_9allocatorIiEEE4sizeB8ue170006Ev, symObjAddr: 0x554, symBinAddr: 0x100001DAC, symSize: 0x28 }
  - { offsetInCU: 0xE116, offset: 0xE116, size: 0x8, addend: 0x0, symName: __ZNSt3__16vectorIiNS_9allocatorIiEEEC1EmRKi, symObjAddr: 0x57C, symBinAddr: 0x100001DD4, symSize: 0x3C }
  - { offsetInCU: 0xE200, offset: 0xE200, size: 0x8, addend: 0x0, symName: __ZNSt3__113unordered_mapIiiNS_4hashIiEENS_8equal_toIiEENS_9allocatorINS_4pairIKiiEEEEEC1B8ue170006Ev, symObjAddr: 0x5B8, symBinAddr: 0x100001E10, symSize: 0x2C }
  - { offsetInCU: 0xE22A, offset: 0xE22A, size: 0x8, addend: 0x0, symName: __ZNSt3__113unordered_mapIiiNS_4hashIiEENS_8equal_toIiEENS_9allocatorINS_4pairIKiiEEEEEixEOi, symObjAddr: 0x5E4, symBinAddr: 0x100001E3C, symSize: 0x80 }
  - { offsetInCU: 0xE261, offset: 0xE261, size: 0x8, addend: 0x0, symName: __ZNSt3__113unordered_mapIiiNS_4hashIiEENS_8equal_toIiEENS_9allocatorINS_4pairIKiiEEEEEixERS7_, symObjAddr: 0x664, symBinAddr: 0x100001EBC, symSize: 0x80 }
  - { offsetInCU: 0xE298, offset: 0xE298, size: 0x8, addend: 0x0, symName: __ZNSt3__16vectorIiNS_9allocatorIiEEEixB8ue170006Em, symObjAddr: 0x6E4, symBinAddr: 0x100001F3C, symSize: 0x24 }
  - { offsetInCU: 0xE2CF, offset: 0xE2CF, size: 0x8, addend: 0x0, symName: __ZNSt3__113unordered_mapIiiNS_4hashIiEENS_8equal_toIiEENS_9allocatorINS_4pairIKiiEEEEE4findB8ue170006ERS7_, symObjAddr: 0x738, symBinAddr: 0x100001F90, symSize: 0x40 }
  - { offsetInCU: 0xE304, offset: 0xE304, size: 0x8, addend: 0x0, symName: __ZNSt3__113unordered_mapIiiNS_4hashIiEENS_8equal_toIiEENS_9allocatorINS_4pairIKiiEEEEE3endB8ue170006Ev, symObjAddr: 0x778, symBinAddr: 0x100001FD0, symSize: 0x38 }
  - { offsetInCU: 0xE32A, offset: 0xE32A, size: 0x8, addend: 0x0, symName: __ZNSt3__113unordered_mapIiiNS_4hashIiEENS_8equal_toIiEENS_9allocatorINS_4pairIKiiEEEEED1B8ue170006Ev, symObjAddr: 0x7B0, symBinAddr: 0x100002008, symSize: 0x2C }
  - { offsetInCU: 0xE354, offset: 0xE354, size: 0x8, addend: 0x0, symName: __ZNSt3__16vectorIiNS_9allocatorIiEEEC2EmRKi, symObjAddr: 0x7DC, symBinAddr: 0x100002034, symSize: 0xDC }
  - { offsetInCU: 0xE3BD, offset: 0xE3BD, size: 0x8, addend: 0x0, symName: __ZNSt3__117__compressed_pairIPiNS_9allocatorIiEEEC1B8ue170006IDnNS_18__default_init_tagEEEOT_OT0_, symObjAddr: 0x8B8, symBinAddr: 0x100002110, symSize: 0x3C }
  - { offsetInCU: 0xE415, offset: 0xE415, size: 0x8, addend: 0x0, symName: __ZNSt3__16vectorIiNS_9allocatorIiEEE16__destroy_vectorC1B8ue170006ERS3_, symObjAddr: 0x934, symBinAddr: 0x10000218C, symSize: 0x34 }
  - { offsetInCU: 0xE44E, offset: 0xE44E, size: 0x8, addend: 0x0, symName: __ZNSt3__16vectorIiNS_9allocatorIiEEE11__vallocateB8ue170006Em, symObjAddr: 0x968, symBinAddr: 0x1000021C0, symSize: 0xAC }
  - { offsetInCU: 0xE492, offset: 0xE492, size: 0x8, addend: 0x0, symName: __ZNSt3__16vectorIiNS_9allocatorIiEEE18__construct_at_endEmRKi, symObjAddr: 0xA14, symBinAddr: 0x10000226C, symSize: 0xD0 }
  - { offsetInCU: 0xE514, offset: 0xE514, size: 0x8, addend: 0x0, symName: __ZNSt3__128__exception_guard_exceptionsINS_6vectorIiNS_9allocatorIiEEE16__destroy_vectorEE10__completeB8ue170006Ev, symObjAddr: 0xAE4, symBinAddr: 0x10000233C, symSize: 0x1C }
  - { offsetInCU: 0xE53A, offset: 0xE53A, size: 0x8, addend: 0x0, symName: __ZNSt3__128__exception_guard_exceptionsINS_6vectorIiNS_9allocatorIiEEE16__destroy_vectorEED1B8ue170006Ev, symObjAddr: 0xB00, symBinAddr: 0x100002358, symSize: 0x2C }
  - { offsetInCU: 0xE564, offset: 0xE564, size: 0x8, addend: 0x0, symName: __ZNSt3__117__compressed_pairIPiNS_9allocatorIiEEEC2B8ue170006IDnNS_18__default_init_tagEEEOT_OT0_, symObjAddr: 0xB2C, symBinAddr: 0x100002384, symSize: 0x40 }
  - { offsetInCU: 0xE5BC, offset: 0xE5BC, size: 0x8, addend: 0x0, symName: __ZNSt3__122__compressed_pair_elemIPiLi0ELb0EEC2B8ue170006IDnvEEOT_, symObjAddr: 0xB6C, symBinAddr: 0x1000023C4, symSize: 0x1C }
  - { offsetInCU: 0xE5FE, offset: 0xE5FE, size: 0x8, addend: 0x0, symName: __ZNSt3__122__compressed_pair_elemINS_9allocatorIiEELi1ELb1EEC2B8ue170006ENS_18__default_init_tagE, symObjAddr: 0xB88, symBinAddr: 0x1000023E0, symSize: 0x2C }
  - { offsetInCU: 0xE633, offset: 0xE633, size: 0x8, addend: 0x0, symName: __ZNSt3__19allocatorIiEC2B8ue170006Ev, symObjAddr: 0xBB4, symBinAddr: 0x10000240C, symSize: 0x2C }
  - { offsetInCU: 0xE65D, offset: 0xE65D, size: 0x8, addend: 0x0, symName: __ZNSt3__116__non_trivial_ifILb1ENS_9allocatorIiEEEC2B8ue170006Ev, symObjAddr: 0xBE0, symBinAddr: 0x100002438, symSize: 0x14 }
  - { offsetInCU: 0xE687, offset: 0xE687, size: 0x8, addend: 0x0, symName: __ZNSt3__128__exception_guard_exceptionsINS_6vectorIiNS_9allocatorIiEEE16__destroy_vectorEEC1B8ue170006ES5_, symObjAddr: 0xBF4, symBinAddr: 0x10000244C, symSize: 0x34 }
  - { offsetInCU: 0xE6BF, offset: 0xE6BF, size: 0x8, addend: 0x0, symName: __ZNSt3__128__exception_guard_exceptionsINS_6vectorIiNS_9allocatorIiEEE16__destroy_vectorEEC2B8ue170006ES5_, symObjAddr: 0xC28, symBinAddr: 0x100002480, symSize: 0x24 }
  - { offsetInCU: 0xE6F7, offset: 0xE6F7, size: 0x8, addend: 0x0, symName: __ZNSt3__16vectorIiNS_9allocatorIiEEE16__destroy_vectorC2B8ue170006ERS3_, symObjAddr: 0xC4C, symBinAddr: 0x1000024A4, symSize: 0x20 }
  - { offsetInCU: 0xE730, offset: 0xE730, size: 0x8, addend: 0x0, symName: __ZNKSt3__16vectorIiNS_9allocatorIiEEE8max_sizeEv, symObjAddr: 0xC6C, symBinAddr: 0x1000024C4, symSize: 0x60 }
  - { offsetInCU: 0xE758, offset: 0xE758, size: 0x8, addend: 0x0, symName: __ZNKSt3__16vectorIiNS_9allocatorIiEEE20__throw_length_errorB8ue170006Ev, symObjAddr: 0xCCC, symBinAddr: 0x100002524, symSize: 0x1C }
  - { offsetInCU: 0xE77E, offset: 0xE77E, size: 0x8, addend: 0x0, symName: __ZNSt3__16vectorIiNS_9allocatorIiEEE7__allocB8ue170006Ev, symObjAddr: 0xD28, symBinAddr: 0x100002580, symSize: 0x28 }
  - { offsetInCU: 0xE7A4, offset: 0xE7A4, size: 0x8, addend: 0x0, symName: __ZNSt3__16vectorIiNS_9allocatorIiEEE9__end_capB8ue170006Ev, symObjAddr: 0xD50, symBinAddr: 0x1000025A8, symSize: 0x28 }
  - { offsetInCU: 0xE7CA, offset: 0xE7CA, size: 0x8, addend: 0x0, symName: __ZNKSt3__16vectorIiNS_9allocatorIiEEE14__annotate_newB8ue170006Em, symObjAddr: 0xD78, symBinAddr: 0x1000025D0, symSize: 0xAC }
  - { offsetInCU: 0xE809, offset: 0xE809, size: 0x8, addend: 0x0, symName: __ZNSt3__116allocator_traitsINS_9allocatorIiEEE8max_sizeB8ue170006IS2_vEEmRKS2_, symObjAddr: 0xE50, symBinAddr: 0x1000026A8, symSize: 0x24 }
  - { offsetInCU: 0xE837, offset: 0xE837, size: 0x8, addend: 0x0, symName: __ZNKSt3__16vectorIiNS_9allocatorIiEEE7__allocB8ue170006Ev, symObjAddr: 0xE74, symBinAddr: 0x1000026CC, symSize: 0x28 }
  - { offsetInCU: 0xE85D, offset: 0xE85D, size: 0x8, addend: 0x0, symName: __ZNSt3__114numeric_limitsIlE3maxB8ue170006Ev, symObjAddr: 0xE9C, symBinAddr: 0x1000026F4, symSize: 0x14 }
  - { offsetInCU: 0xE87B, offset: 0xE87B, size: 0x8, addend: 0x0, symName: __ZNKSt3__16__lessIvvEclB8ue170006ImmEEbRKT_RKT0_, symObjAddr: 0xF10, symBinAddr: 0x100002768, symSize: 0x34 }
  - { offsetInCU: 0xE8CF, offset: 0xE8CF, size: 0x8, addend: 0x0, symName: __ZNKSt3__19allocatorIiE8max_sizeB8ue170006Ev, symObjAddr: 0xF44, symBinAddr: 0x10000279C, symSize: 0x14 }
  - { offsetInCU: 0xE8F5, offset: 0xE8F5, size: 0x8, addend: 0x0, symName: __ZNKSt3__117__compressed_pairIPiNS_9allocatorIiEEE6secondB8ue170006Ev, symObjAddr: 0xF58, symBinAddr: 0x1000027B0, symSize: 0x24 }
  - { offsetInCU: 0xE91B, offset: 0xE91B, size: 0x8, addend: 0x0, symName: __ZNKSt3__122__compressed_pair_elemINS_9allocatorIiEELi1ELb1EE5__getB8ue170006Ev, symObjAddr: 0xF7C, symBinAddr: 0x1000027D4, symSize: 0x14 }
  - { offsetInCU: 0xE941, offset: 0xE941, size: 0x8, addend: 0x0, symName: __ZNSt3__123__libcpp_numeric_limitsIlLb1EE3maxB8ue170006Ev, symObjAddr: 0xF90, symBinAddr: 0x1000027E8, symSize: 0x8 }
  - { offsetInCU: 0xE955, offset: 0xE955, size: 0x8, addend: 0x0, symName: __ZNSt12length_errorC1B8ue170006EPKc, symObjAddr: 0xFFC, symBinAddr: 0x100002854, symSize: 0x34 }
  - { offsetInCU: 0xE98D, offset: 0xE98D, size: 0x8, addend: 0x0, symName: __ZNSt12length_errorC2B8ue170006EPKc, symObjAddr: 0x1030, symBinAddr: 0x100002888, symSize: 0x4C }
  - { offsetInCU: 0xE9C5, offset: 0xE9C5, size: 0x8, addend: 0x0, symName: __ZNSt3__19allocatorIiE8allocateB8ue170006Em, symObjAddr: 0x107C, symBinAddr: 0x1000028D4, symSize: 0x58 }
  - { offsetInCU: 0xE9F9, offset: 0xE9F9, size: 0x8, addend: 0x0, symName: __ZNSt3__117__compressed_pairIPiNS_9allocatorIiEEE6secondB8ue170006Ev, symObjAddr: 0x1154, symBinAddr: 0x1000029AC, symSize: 0x24 }
  - { offsetInCU: 0xEA1F, offset: 0xEA1F, size: 0x8, addend: 0x0, symName: __ZNSt3__122__compressed_pair_elemINS_9allocatorIiEELi1ELb1EE5__getB8ue170006Ev, symObjAddr: 0x1178, symBinAddr: 0x1000029D0, symSize: 0x14 }
  - { offsetInCU: 0xEA45, offset: 0xEA45, size: 0x8, addend: 0x0, symName: __ZNSt3__117__compressed_pairIPiNS_9allocatorIiEEE5firstB8ue170006Ev, symObjAddr: 0x118C, symBinAddr: 0x1000029E4, symSize: 0x24 }
  - { offsetInCU: 0xEA6B, offset: 0xEA6B, size: 0x8, addend: 0x0, symName: __ZNSt3__122__compressed_pair_elemIPiLi0ELb0EE5__getB8ue170006Ev, symObjAddr: 0x11B0, symBinAddr: 0x100002A08, symSize: 0x14 }
  - { offsetInCU: 0xEA91, offset: 0xEA91, size: 0x8, addend: 0x0, symName: __ZNKSt3__16vectorIiNS_9allocatorIiEEE31__annotate_contiguous_containerB8ue170006EPKvS5_S5_S5_, symObjAddr: 0x11C4, symBinAddr: 0x100002A1C, symSize: 0x20 }
  - { offsetInCU: 0xEAE3, offset: 0xEAE3, size: 0x8, addend: 0x0, symName: __ZNKSt3__16vectorIiNS_9allocatorIiEEE4dataB8ue170006Ev, symObjAddr: 0x11E4, symBinAddr: 0x100002A3C, symSize: 0x28 }
  - { offsetInCU: 0xEB09, offset: 0xEB09, size: 0x8, addend: 0x0, symName: __ZNKSt3__16vectorIiNS_9allocatorIiEEE8capacityB8ue170006Ev, symObjAddr: 0x120C, symBinAddr: 0x100002A64, symSize: 0x40 }
  - { offsetInCU: 0xEB2F, offset: 0xEB2F, size: 0x8, addend: 0x0, symName: __ZNKSt3__16vectorIiNS_9allocatorIiEEE9__end_capB8ue170006Ev, symObjAddr: 0x1260, symBinAddr: 0x100002AB8, symSize: 0x28 }
  - { offsetInCU: 0xEB55, offset: 0xEB55, size: 0x8, addend: 0x0, symName: __ZNKSt3__117__compressed_pairIPiNS_9allocatorIiEEE5firstB8ue170006Ev, symObjAddr: 0x1288, symBinAddr: 0x100002AE0, symSize: 0x24 }
  - { offsetInCU: 0xEB7B, offset: 0xEB7B, size: 0x8, addend: 0x0, symName: __ZNKSt3__122__compressed_pair_elemIPiLi0ELb0EE5__getB8ue170006Ev, symObjAddr: 0x12AC, symBinAddr: 0x100002B04, symSize: 0x14 }
  - { offsetInCU: 0xEBBA, offset: 0xEBBA, size: 0x8, addend: 0x0, symName: __ZNSt3__16vectorIiNS_9allocatorIiEEE21_ConstructTransactionC1B8ue170006ERS3_m, symObjAddr: 0x12C0, symBinAddr: 0x100002B18, symSize: 0x3C }
  - { offsetInCU: 0xEC02, offset: 0xEC02, size: 0x8, addend: 0x0, symName: __ZNSt3__116allocator_traitsINS_9allocatorIiEEE9constructB8ue170006IiJRKiEvEEvRS2_PT_DpOT0_, symObjAddr: 0x12FC, symBinAddr: 0x100002B54, symSize: 0x34 }
  - { offsetInCU: 0xEC59, offset: 0xEC59, size: 0x8, addend: 0x0, symName: __ZNSt3__16vectorIiNS_9allocatorIiEEE21_ConstructTransactionD1B8ue170006Ev, symObjAddr: 0x1330, symBinAddr: 0x100002B88, symSize: 0x2C }
  - { offsetInCU: 0xEC83, offset: 0xEC83, size: 0x8, addend: 0x0, symName: __ZNSt3__16vectorIiNS_9allocatorIiEEE21_ConstructTransactionC2B8ue170006ERS3_m, symObjAddr: 0x135C, symBinAddr: 0x100002BB4, symSize: 0x44 }
  - { offsetInCU: 0xECCB, offset: 0xECCB, size: 0x8, addend: 0x0, symName: __ZNSt3__19allocatorIiE9constructB8ue170006IiJRKiEEEvPT_DpOT0_, symObjAddr: 0x13A0, symBinAddr: 0x100002BF8, symSize: 0x28 }
  - { offsetInCU: 0xED21, offset: 0xED21, size: 0x8, addend: 0x0, symName: __ZNSt3__16vectorIiNS_9allocatorIiEEE21_ConstructTransactionD2B8ue170006Ev, symObjAddr: 0x13C8, symBinAddr: 0x100002C20, symSize: 0x20 }
  - { offsetInCU: 0xED4B, offset: 0xED4B, size: 0x8, addend: 0x0, symName: __ZNSt3__128__exception_guard_exceptionsINS_6vectorIiNS_9allocatorIiEEE16__destroy_vectorEED2B8ue170006Ev, symObjAddr: 0x13E8, symBinAddr: 0x100002C40, symSize: 0x50 }
  - { offsetInCU: 0xED75, offset: 0xED75, size: 0x8, addend: 0x0, symName: __ZNSt3__16vectorIiNS_9allocatorIiEEE16__destroy_vectorclB8ue170006Ev, symObjAddr: 0x1438, symBinAddr: 0x100002C90, symSize: 0x90 }
  - { offsetInCU: 0xED9B, offset: 0xED9B, size: 0x8, addend: 0x0, symName: __ZNSt3__16vectorIiNS_9allocatorIiEEE7__clearB8ue170006Ev, symObjAddr: 0x14C8, symBinAddr: 0x100002D20, symSize: 0x28 }
  - { offsetInCU: 0xEDC1, offset: 0xEDC1, size: 0x8, addend: 0x0, symName: __ZNKSt3__16vectorIiNS_9allocatorIiEEE17__annotate_deleteB8ue170006Ev, symObjAddr: 0x14F0, symBinAddr: 0x100002D48, symSize: 0xB8 }
  - { offsetInCU: 0xEDE7, offset: 0xEDE7, size: 0x8, addend: 0x0, symName: __ZNSt3__116allocator_traitsINS_9allocatorIiEEE10deallocateB8ue170006ERS2_Pim, symObjAddr: 0x15A8, symBinAddr: 0x100002E00, symSize: 0x34 }
  - { offsetInCU: 0xEE29, offset: 0xEE29, size: 0x8, addend: 0x0, symName: __ZNSt3__16vectorIiNS_9allocatorIiEEE22__base_destruct_at_endB8ue170006EPi, symObjAddr: 0x15DC, symBinAddr: 0x100002E34, symSize: 0x8C }
  - { offsetInCU: 0xEE6D, offset: 0xEE6D, size: 0x8, addend: 0x0, symName: __ZNSt3__116allocator_traitsINS_9allocatorIiEEE7destroyB8ue170006IivEEvRS2_PT_, symObjAddr: 0x1668, symBinAddr: 0x100002EC0, symSize: 0x2C }
  - { offsetInCU: 0xEEAA, offset: 0xEEAA, size: 0x8, addend: 0x0, symName: __ZNSt3__19allocatorIiE7destroyB8ue170006EPi, symObjAddr: 0x1694, symBinAddr: 0x100002EEC, symSize: 0x14 }
  - { offsetInCU: 0xEEDE, offset: 0xEEDE, size: 0x8, addend: 0x0, symName: __ZNSt3__19allocatorIiE10deallocateB8ue170006EPim, symObjAddr: 0x16A8, symBinAddr: 0x100002F00, symSize: 0x40 }
  - { offsetInCU: 0xEF20, offset: 0xEF20, size: 0x8, addend: 0x0, symName: __ZNSt3__113unordered_mapIiiNS_4hashIiEENS_8equal_toIiEENS_9allocatorINS_4pairIKiiEEEEEC2B8ue170006Ev, symObjAddr: 0x1764, symBinAddr: 0x100002FBC, symSize: 0x2C }
  - { offsetInCU: 0xEF4A, offset: 0xEF4A, size: 0x8, addend: 0x0, symName: __ZNSt3__112__hash_tableINS_17__hash_value_typeIiiEENS_22__unordered_map_hasherIiS2_NS_4hashIiEENS_8equal_toIiEELb1EEENS_21__unordered_map_equalIiS2_S7_S5_Lb1EEENS_9allocatorIS2_EEEC1Ev, symObjAddr: 0x1790, symBinAddr: 0x100002FE8, symSize: 0x2C }
  - { offsetInCU: 0xEF76, offset: 0xEF76, size: 0x8, addend: 0x0, symName: __ZNSt3__112__hash_tableINS_17__hash_value_typeIiiEENS_22__unordered_map_hasherIiS2_NS_4hashIiEENS_8equal_toIiEELb1EEENS_21__unordered_map_equalIiS2_S7_S5_Lb1EEENS_9allocatorIS2_EEEC2Ev, symObjAddr: 0x17BC, symBinAddr: 0x100003014, symSize: 0x7C }
  - { offsetInCU: 0xEFA2, offset: 0xEFA2, size: 0x8, addend: 0x0, symName: __ZNSt3__110unique_ptrIA_PNS_16__hash_node_baseIPNS_11__hash_nodeINS_17__hash_value_typeIiiEEPvEEEENS_25__bucket_list_deallocatorINS_9allocatorIS9_EEEEEC1B8ue170006ILb1EvEEv, symObjAddr: 0x1838, symBinAddr: 0x100003090, symSize: 0x2C }
  - { offsetInCU: 0xEFD7, offset: 0xEFD7, size: 0x8, addend: 0x0, symName: __ZNSt3__117__compressed_pairINS_16__hash_node_baseIPNS_11__hash_nodeINS_17__hash_value_typeIiiEEPvEEEENS_9allocatorIS6_EEEC1B8ue170006ILb1EvEEv, symObjAddr: 0x1864, symBinAddr: 0x1000030BC, symSize: 0x2C }
  - { offsetInCU: 0xF00C, offset: 0xF00C, size: 0x8, addend: 0x0, symName: __ZNSt3__117__compressed_pairImNS_22__unordered_map_hasherIiNS_17__hash_value_typeIiiEENS_4hashIiEENS_8equal_toIiEELb1EEEEC1B8ue170006IiNS_18__default_init_tagEEEOT_OT0_, symObjAddr: 0x1890, symBinAddr: 0x1000030E8, symSize: 0x3C }
  - { offsetInCU: 0xF069, offset: 0xF069, size: 0x8, addend: 0x0, symName: __ZNSt3__117__compressed_pairIfNS_21__unordered_map_equalIiNS_17__hash_value_typeIiiEENS_8equal_toIiEENS_4hashIiEELb1EEEEC1B8ue170006IfNS_18__default_init_tagEEEOT_OT0_, symObjAddr: 0x18CC, symBinAddr: 0x100003124, symSize: 0x3C }
  - { offsetInCU: 0xF0C1, offset: 0xF0C1, size: 0x8, addend: 0x0, symName: __ZNSt3__110unique_ptrIA_PNS_16__hash_node_baseIPNS_11__hash_nodeINS_17__hash_value_typeIiiEEPvEEEENS_25__bucket_list_deallocatorINS_9allocatorIS9_EEEEEC2B8ue170006ILb1EvEEv, symObjAddr: 0x1908, symBinAddr: 0x100003160, symSize: 0x3C }
  - { offsetInCU: 0xF0FB, offset: 0xF0FB, size: 0x8, addend: 0x0, symName: __ZNSt3__117__compressed_pairIPPNS_16__hash_node_baseIPNS_11__hash_nodeINS_17__hash_value_typeIiiEEPvEEEENS_25__bucket_list_deallocatorINS_9allocatorIS9_EEEEEC1B8ue170006INS_16__value_init_tagESH_EEOT_OT0_, symObjAddr: 0x1944, symBinAddr: 0x10000319C, symSize: 0x3C }
  - { offsetInCU: 0xF153, offset: 0xF153, size: 0x8, addend: 0x0, symName: __ZNSt3__117__compressed_pairIPPNS_16__hash_node_baseIPNS_11__hash_nodeINS_17__hash_value_typeIiiEEPvEEEENS_25__bucket_list_deallocatorINS_9allocatorIS9_EEEEEC2B8ue170006INS_16__value_init_tagESH_EEOT_OT0_, symObjAddr: 0x1980, symBinAddr: 0x1000031D8, symSize: 0x40 }
  - { offsetInCU: 0xF1AB, offset: 0xF1AB, size: 0x8, addend: 0x0, symName: __ZNSt3__122__compressed_pair_elemIPPNS_16__hash_node_baseIPNS_11__hash_nodeINS_17__hash_value_typeIiiEEPvEEEELi0ELb0EEC2B8ue170006ENS_16__value_init_tagE, symObjAddr: 0x19C0, symBinAddr: 0x100003218, symSize: 0x18 }
  - { offsetInCU: 0xF1E0, offset: 0xF1E0, size: 0x8, addend: 0x0, symName: __ZNSt3__122__compressed_pair_elemINS_25__bucket_list_deallocatorINS_9allocatorIPNS_16__hash_node_baseIPNS_11__hash_nodeINS_17__hash_value_typeIiiEEPvEEEEEEEELi1ELb0EEC2B8ue170006ENS_16__value_init_tagE, symObjAddr: 0x19D8, symBinAddr: 0x100003230, symSize: 0x2C }
  - { offsetInCU: 0xF215, offset: 0xF215, size: 0x8, addend: 0x0, symName: __ZNSt3__125__bucket_list_deallocatorINS_9allocatorIPNS_16__hash_node_baseIPNS_11__hash_nodeINS_17__hash_value_typeIiiEEPvEEEEEEEC1B8ue170006Ev, symObjAddr: 0x1A04, symBinAddr: 0x10000325C, symSize: 0x2C }
  - { offsetInCU: 0xF23F, offset: 0xF23F, size: 0x8, addend: 0x0, symName: __ZNSt3__125__bucket_list_deallocatorINS_9allocatorIPNS_16__hash_node_baseIPNS_11__hash_nodeINS_17__hash_value_typeIiiEEPvEEEEEEEC2B8ue170006Ev, symObjAddr: 0x1A30, symBinAddr: 0x100003288, symSize: 0x40 }
  - { offsetInCU: 0xF269, offset: 0xF269, size: 0x8, addend: 0x0, symName: __ZNSt3__117__compressed_pairImNS_9allocatorIPNS_16__hash_node_baseIPNS_11__hash_nodeINS_17__hash_value_typeIiiEEPvEEEEEEEC1B8ue170006IiNS_18__default_init_tagEEEOT_OT0_, symObjAddr: 0x1A70, symBinAddr: 0x1000032C8, symSize: 0x3C }
  - { offsetInCU: 0xF2C1, offset: 0xF2C1, size: 0x8, addend: 0x0, symName: __ZNSt3__117__compressed_pairImNS_9allocatorIPNS_16__hash_node_baseIPNS_11__hash_nodeINS_17__hash_value_typeIiiEEPvEEEEEEEC2B8ue170006IiNS_18__default_init_tagEEEOT_OT0_, symObjAddr: 0x1AAC, symBinAddr: 0x100003304, symSize: 0x40 }
  - { offsetInCU: 0xF319, offset: 0xF319, size: 0x8, addend: 0x0, symName: __ZNSt3__122__compressed_pair_elemImLi0ELb0EEC2B8ue170006IivEEOT_, symObjAddr: 0x1AEC, symBinAddr: 0x100003344, symSize: 0x24 }
  - { offsetInCU: 0xF35B, offset: 0xF35B, size: 0x8, addend: 0x0, symName: __ZNSt3__122__compressed_pair_elemINS_9allocatorIPNS_16__hash_node_baseIPNS_11__hash_nodeINS_17__hash_value_typeIiiEEPvEEEEEELi1ELb1EEC2B8ue170006ENS_18__default_init_tagE, symObjAddr: 0x1B10, symBinAddr: 0x100003368, symSize: 0x2C }
  - { offsetInCU: 0xF390, offset: 0xF390, size: 0x8, addend: 0x0, symName: __ZNSt3__19allocatorIPNS_16__hash_node_baseIPNS_11__hash_nodeINS_17__hash_value_typeIiiEEPvEEEEEC2B8ue170006Ev, symObjAddr: 0x1B3C, symBinAddr: 0x100003394, symSize: 0x2C }
  - { offsetInCU: 0xF3BA, offset: 0xF3BA, size: 0x8, addend: 0x0, symName: __ZNSt3__116__non_trivial_ifILb1ENS_9allocatorIPNS_16__hash_node_baseIPNS_11__hash_nodeINS_17__hash_value_typeIiiEEPvEEEEEEEC2B8ue170006Ev, symObjAddr: 0x1B68, symBinAddr: 0x1000033C0, symSize: 0x14 }
  - { offsetInCU: 0xF3E4, offset: 0xF3E4, size: 0x8, addend: 0x0, symName: __ZNSt3__117__compressed_pairINS_16__hash_node_baseIPNS_11__hash_nodeINS_17__hash_value_typeIiiEEPvEEEENS_9allocatorIS6_EEEC2B8ue170006ILb1EvEEv, symObjAddr: 0x1B7C, symBinAddr: 0x1000033D4, symSize: 0x34 }
  - { offsetInCU: 0xF419, offset: 0xF419, size: 0x8, addend: 0x0, symName: __ZNSt3__122__compressed_pair_elemINS_16__hash_node_baseIPNS_11__hash_nodeINS_17__hash_value_typeIiiEEPvEEEELi0ELb0EEC2B8ue170006ENS_16__value_init_tagE, symObjAddr: 0x1BB0, symBinAddr: 0x100003408, symSize: 0x2C }
  - { offsetInCU: 0xF44E, offset: 0xF44E, size: 0x8, addend: 0x0, symName: __ZNSt3__122__compressed_pair_elemINS_9allocatorINS_11__hash_nodeINS_17__hash_value_typeIiiEEPvEEEELi1ELb1EEC2B8ue170006ENS_16__value_init_tagE, symObjAddr: 0x1BDC, symBinAddr: 0x100003434, symSize: 0x2C }
  - { offsetInCU: 0xF483, offset: 0xF483, size: 0x8, addend: 0x0, symName: __ZNSt3__116__hash_node_baseIPNS_11__hash_nodeINS_17__hash_value_typeIiiEEPvEEEC1B8ue170006Ev, symObjAddr: 0x1C08, symBinAddr: 0x100003460, symSize: 0x2C }
  - { offsetInCU: 0xF4AD, offset: 0xF4AD, size: 0x8, addend: 0x0, symName: __ZNSt3__116__hash_node_baseIPNS_11__hash_nodeINS_17__hash_value_typeIiiEEPvEEEC2B8ue170006Ev, symObjAddr: 0x1C34, symBinAddr: 0x10000348C, symSize: 0x18 }
  - { offsetInCU: 0xF4D7, offset: 0xF4D7, size: 0x8, addend: 0x0, symName: __ZNSt3__19allocatorINS_11__hash_nodeINS_17__hash_value_typeIiiEEPvEEEC2B8ue170006Ev, symObjAddr: 0x1C4C, symBinAddr: 0x1000034A4, symSize: 0x2C }
  - { offsetInCU: 0xF501, offset: 0xF501, size: 0x8, addend: 0x0, symName: __ZNSt3__116__non_trivial_ifILb1ENS_9allocatorINS_11__hash_nodeINS_17__hash_value_typeIiiEEPvEEEEEC2B8ue170006Ev, symObjAddr: 0x1C78, symBinAddr: 0x1000034D0, symSize: 0x14 }
  - { offsetInCU: 0xF52B, offset: 0xF52B, size: 0x8, addend: 0x0, symName: __ZNSt3__117__compressed_pairImNS_22__unordered_map_hasherIiNS_17__hash_value_typeIiiEENS_4hashIiEENS_8equal_toIiEELb1EEEEC2B8ue170006IiNS_18__default_init_tagEEEOT_OT0_, symObjAddr: 0x1C8C, symBinAddr: 0x1000034E4, symSize: 0x40 }
  - { offsetInCU: 0xF583, offset: 0xF583, size: 0x8, addend: 0x0, symName: __ZNSt3__122__compressed_pair_elemINS_22__unordered_map_hasherIiNS_17__hash_value_typeIiiEENS_4hashIiEENS_8equal_toIiEELb1EEELi1ELb1EEC2B8ue170006ENS_18__default_init_tagE, symObjAddr: 0x1CCC, symBinAddr: 0x100003524, symSize: 0x2C }
  - { offsetInCU: 0xF5B8, offset: 0xF5B8, size: 0x8, addend: 0x0, symName: __ZNSt3__122__unordered_map_hasherIiNS_17__hash_value_typeIiiEENS_4hashIiEENS_8equal_toIiEELb1EEC2B8ue170006Ev, symObjAddr: 0x1CF8, symBinAddr: 0x100003550, symSize: 0x14 }
  - { offsetInCU: 0xF5E2, offset: 0xF5E2, size: 0x8, addend: 0x0, symName: __ZNSt3__117__compressed_pairIfNS_21__unordered_map_equalIiNS_17__hash_value_typeIiiEENS_8equal_toIiEENS_4hashIiEELb1EEEEC2B8ue170006IfNS_18__default_init_tagEEEOT_OT0_, symObjAddr: 0x1D0C, symBinAddr: 0x100003564, symSize: 0x40 }
  - { offsetInCU: 0xF63A, offset: 0xF63A, size: 0x8, addend: 0x0, symName: __ZNSt3__122__compressed_pair_elemIfLi0ELb0EEC2B8ue170006IfvEEOT_, symObjAddr: 0x1D4C, symBinAddr: 0x1000035A4, symSize: 0x24 }
  - { offsetInCU: 0xF67C, offset: 0xF67C, size: 0x8, addend: 0x0, symName: __ZNSt3__122__compressed_pair_elemINS_21__unordered_map_equalIiNS_17__hash_value_typeIiiEENS_8equal_toIiEENS_4hashIiEELb1EEELi1ELb1EEC2B8ue170006ENS_18__default_init_tagE, symObjAddr: 0x1D70, symBinAddr: 0x1000035C8, symSize: 0x2C }
  - { offsetInCU: 0xF6B1, offset: 0xF6B1, size: 0x8, addend: 0x0, symName: __ZNSt3__121__unordered_map_equalIiNS_17__hash_value_typeIiiEENS_8equal_toIiEENS_4hashIiEELb1EEC2B8ue170006Ev, symObjAddr: 0x1D9C, symBinAddr: 0x1000035F4, symSize: 0x14 }
  - { offsetInCU: 0xF6EF, offset: 0xF6EF, size: 0x8, addend: 0x0, symName: __ZNSt3__112__hash_tableINS_17__hash_value_typeIiiEENS_22__unordered_map_hasherIiS2_NS_4hashIiEENS_8equal_toIiEELb1EEENS_21__unordered_map_equalIiS2_S7_S5_Lb1EEENS_9allocatorIS2_EEE25__emplace_unique_key_argsIiJRKNS_21piecewise_construct_tENS_5tupleIJOiEEENSI_IJEEEEEENS_4pairINS_15__hash_iteratorIPNS_11__hash_nodeIS2_PvEEEEbEERKT_DpOT0_, symObjAddr: 0x1DB0, symBinAddr: 0x100003608, symSize: 0x4E8 }
  - { offsetInCU: 0xF7F9, offset: 0xF7F9, size: 0x8, addend: 0x0, symName: __ZNKSt3__115__hash_iteratorIPNS_11__hash_nodeINS_17__hash_value_typeIiiEEPvEEEptB8ue170006Ev, symObjAddr: 0x22C8, symBinAddr: 0x100003B20, symSize: 0x30 }
  - { offsetInCU: 0xF81F, offset: 0xF81F, size: 0x8, addend: 0x0, symName: __ZNSt3__117__hash_value_typeIiiE11__get_valueB8ue170006Ev, symObjAddr: 0x22F8, symBinAddr: 0x100003B50, symSize: 0x14 }
  - { offsetInCU: 0xF845, offset: 0xF845, size: 0x8, addend: 0x0, symName: __ZNSt3__112__hash_tableINS_17__hash_value_typeIiiEENS_22__unordered_map_hasherIiS2_NS_4hashIiEENS_8equal_toIiEELb1EEENS_21__unordered_map_equalIiS2_S7_S5_Lb1EEENS_9allocatorIS2_EEE13hash_functionB8ue170006Ev, symObjAddr: 0x230C, symBinAddr: 0x100003B64, symSize: 0x28 }
  - { offsetInCU: 0xF86B, offset: 0xF86B, size: 0x8, addend: 0x0, symName: __ZNKSt3__122__unordered_map_hasherIiNS_17__hash_value_typeIiiEENS_4hashIiEENS_8equal_toIiEELb1EEclB8ue170006ERKi, symObjAddr: 0x2334, symBinAddr: 0x100003B8C, symSize: 0x30 }
  - { offsetInCU: 0xF8A0, offset: 0xF8A0, size: 0x8, addend: 0x0, symName: __ZNKSt3__112__hash_tableINS_17__hash_value_typeIiiEENS_22__unordered_map_hasherIiS2_NS_4hashIiEENS_8equal_toIiEELb1EEENS_21__unordered_map_equalIiS2_S7_S5_Lb1EEENS_9allocatorIS2_EEE12bucket_countB8ue170006Ev, symObjAddr: 0x2364, symBinAddr: 0x100003BBC, symSize: 0x28 }
  - { offsetInCU: 0xF8C6, offset: 0xF8C6, size: 0x8, addend: 0x0, symName: __ZNKSt3__110unique_ptrIA_PNS_16__hash_node_baseIPNS_11__hash_nodeINS_17__hash_value_typeIiiEEPvEEEENS_25__bucket_list_deallocatorINS_9allocatorIS9_EEEEEixB8ue170006Em, symObjAddr: 0x2424, symBinAddr: 0x100003C7C, symSize: 0x34 }
  - { offsetInCU: 0xF8FB, offset: 0xF8FB, size: 0x8, addend: 0x0, symName: __ZNKSt3__116__hash_node_baseIPNS_11__hash_nodeINS_17__hash_value_typeIiiEEPvEEE6__hashB8ue170006Ev, symObjAddr: 0x2458, symBinAddr: 0x100003CB0, symSize: 0x18 }
  - { offsetInCU: 0xF921, offset: 0xF921, size: 0x8, addend: 0x0, symName: __ZNSt3__112__hash_tableINS_17__hash_value_typeIiiEENS_22__unordered_map_hasherIiS2_NS_4hashIiEENS_8equal_toIiEELb1EEENS_21__unordered_map_equalIiS2_S7_S5_Lb1EEENS_9allocatorIS2_EEE6key_eqB8ue170006Ev, symObjAddr: 0x2470, symBinAddr: 0x100003CC8, symSize: 0x28 }
  - { offsetInCU: 0xF947, offset: 0xF947, size: 0x8, addend: 0x0, symName: __ZNKSt3__121__unordered_map_equalIiNS_17__hash_value_typeIiiEENS_8equal_toIiEENS_4hashIiEELb1EEclB8ue170006ERKS2_RKi, symObjAddr: 0x2498, symBinAddr: 0x100003CF0, symSize: 0x48 }
  - { offsetInCU: 0xF98B, offset: 0xF98B, size: 0x8, addend: 0x0, symName: __ZNSt3__116__hash_node_baseIPNS_11__hash_nodeINS_17__hash_value_typeIiiEEPvEEE8__upcastB8ue170006Ev, symObjAddr: 0x24E0, symBinAddr: 0x100003D38, symSize: 0x24 }
  - { offsetInCU: 0xF9B1, offset: 0xF9B1, size: 0x8, addend: 0x0, symName: __ZNSt3__112__hash_tableINS_17__hash_value_typeIiiEENS_22__unordered_map_hasherIiS2_NS_4hashIiEENS_8equal_toIiEELb1EEENS_21__unordered_map_equalIiS2_S7_S5_Lb1EEENS_9allocatorIS2_EEE21__construct_node_hashIRKNS_21piecewise_construct_tEJNS_5tupleIJOiEEENSI_IJEEEEEENS_10unique_ptrINS_11__hash_nodeIS2_PvEENS_22__hash_node_destructorINSB_ISP_EEEEEEmOT_DpOT0_, symObjAddr: 0x2504, symBinAddr: 0x100003D5C, symSize: 0x150 }
  - { offsetInCU: 0xFA4D, offset: 0xFA4D, size: 0x8, addend: 0x0, symName: __ZNSt3__112__hash_tableINS_17__hash_value_typeIiiEENS_22__unordered_map_hasherIiS2_NS_4hashIiEENS_8equal_toIiEELb1EEENS_21__unordered_map_equalIiS2_S7_S5_Lb1EEENS_9allocatorIS2_EEE4sizeB8ue170006Ev, symObjAddr: 0x2654, symBinAddr: 0x100003EAC, symSize: 0x28 }
  - { offsetInCU: 0xFA73, offset: 0xFA73, size: 0x8, addend: 0x0, symName: __ZNSt3__112__hash_tableINS_17__hash_value_typeIiiEENS_22__unordered_map_hasherIiS2_NS_4hashIiEENS_8equal_toIiEELb1EEENS_21__unordered_map_equalIiS2_S7_S5_Lb1EEENS_9allocatorIS2_EEE15max_load_factorB8ue170006Ev, symObjAddr: 0x267C, symBinAddr: 0x100003ED4, symSize: 0x28 }
  - { offsetInCU: 0xFA99, offset: 0xFA99, size: 0x8, addend: 0x0, symName: __ZNSt3__112__hash_tableINS_17__hash_value_typeIiiEENS_22__unordered_map_hasherIiS2_NS_4hashIiEENS_8equal_toIiEELb1EEENS_21__unordered_map_equalIiS2_S7_S5_Lb1EEENS_9allocatorIS2_EEE15__rehash_uniqueB8ue170006Em, symObjAddr: 0x26A4, symBinAddr: 0x100003EFC, symSize: 0x2C }
  - { offsetInCU: 0xFACD, offset: 0xFACD, size: 0x8, addend: 0x0, symName: __Z4ceilB8ue170006f, symObjAddr: 0x274C, symBinAddr: 0x100003FA4, symSize: 0x18 }
  - { offsetInCU: 0xFAFC, offset: 0xFAFC, size: 0x8, addend: 0x0, symName: __ZNSt3__117__compressed_pairINS_16__hash_node_baseIPNS_11__hash_nodeINS_17__hash_value_typeIiiEEPvEEEENS_9allocatorIS6_EEE5firstB8ue170006Ev, symObjAddr: 0x2764, symBinAddr: 0x100003FBC, symSize: 0x24 }
  - { offsetInCU: 0xFB22, offset: 0xFB22, size: 0x8, addend: 0x0, symName: __ZNSt3__116__hash_node_baseIPNS_11__hash_nodeINS_17__hash_value_typeIiiEEPvEEE5__ptrB8ue170006Ev, symObjAddr: 0x2788, symBinAddr: 0x100003FE0, symSize: 0x24 }
  - { offsetInCU: 0xFB48, offset: 0xFB48, size: 0x8, addend: 0x0, symName: __ZNKSt3__110unique_ptrINS_11__hash_nodeINS_17__hash_value_typeIiiEEPvEENS_22__hash_node_destructorINS_9allocatorIS5_EEEEEptB8ue170006Ev, symObjAddr: 0x27AC, symBinAddr: 0x100004004, symSize: 0x28 }
  - { offsetInCU: 0xFB6E, offset: 0xFB6E, size: 0x8, addend: 0x0, symName: __ZNKSt3__110unique_ptrINS_11__hash_nodeINS_17__hash_value_typeIiiEEPvEENS_22__hash_node_destructorINS_9allocatorIS5_EEEEE3getB8ue170006Ev, symObjAddr: 0x27D4, symBinAddr: 0x10000402C, symSize: 0x28 }
  - { offsetInCU: 0xFB94, offset: 0xFB94, size: 0x8, addend: 0x0, symName: __ZNSt3__110unique_ptrINS_11__hash_nodeINS_17__hash_value_typeIiiEEPvEENS_22__hash_node_destructorINS_9allocatorIS5_EEEEE7releaseB8ue170006Ev, symObjAddr: 0x27FC, symBinAddr: 0x100004054, symSize: 0x44 }
  - { offsetInCU: 0xFBC9, offset: 0xFBC9, size: 0x8, addend: 0x0, symName: __ZNSt3__110unique_ptrINS_11__hash_nodeINS_17__hash_value_typeIiiEEPvEENS_22__hash_node_destructorINS_9allocatorIS5_EEEEED1B8ue170006Ev, symObjAddr: 0x2840, symBinAddr: 0x100004098, symSize: 0x2C }
  - { offsetInCU: 0xFBF3, offset: 0xFBF3, size: 0x8, addend: 0x0, symName: __ZNSt3__115__hash_iteratorIPNS_11__hash_nodeINS_17__hash_value_typeIiiEEPvEEEC1B8ue170006EPNS_16__hash_node_baseIS6_EE, symObjAddr: 0x286C, symBinAddr: 0x1000040C4, symSize: 0x34 }
  - { offsetInCU: 0xFC36, offset: 0xFC36, size: 0x8, addend: 0x0, symName: __ZNSt3__14pairINS_15__hash_iteratorIPNS_11__hash_nodeINS_17__hash_value_typeIiiEEPvEEEEbEC1B8ue170006IS8_RbLS5_0EEEOT_OT0_, symObjAddr: 0x28A0, symBinAddr: 0x1000040F8, symSize: 0x3C }
  - { offsetInCU: 0xFC94, offset: 0xFC94, size: 0x8, addend: 0x0, symName: __ZNSt3__117__compressed_pairImNS_22__unordered_map_hasherIiNS_17__hash_value_typeIiiEENS_4hashIiEENS_8equal_toIiEELb1EEEE6secondB8ue170006Ev, symObjAddr: 0x28DC, symBinAddr: 0x100004134, symSize: 0x24 }
  - { offsetInCU: 0xFCBA, offset: 0xFCBA, size: 0x8, addend: 0x0, symName: __ZNSt3__122__compressed_pair_elemINS_22__unordered_map_hasherIiNS_17__hash_value_typeIiiEENS_4hashIiEENS_8equal_toIiEELb1EEELi1ELb1EE5__getB8ue170006Ev, symObjAddr: 0x2900, symBinAddr: 0x100004158, symSize: 0x14 }
  - { offsetInCU: 0xFCE0, offset: 0xFCE0, size: 0x8, addend: 0x0, symName: __ZNKSt3__14hashIiEclB8ue170006Ei, symObjAddr: 0x2914, symBinAddr: 0x10000416C, symSize: 0x18 }
  - { offsetInCU: 0xFD15, offset: 0xFD15, size: 0x8, addend: 0x0, symName: __ZNKSt3__110unique_ptrIA_PNS_16__hash_node_baseIPNS_11__hash_nodeINS_17__hash_value_typeIiiEEPvEEEENS_25__bucket_list_deallocatorINS_9allocatorIS9_EEEEE11get_deleterB8ue170006Ev, symObjAddr: 0x292C, symBinAddr: 0x100004184, symSize: 0x24 }
  - { offsetInCU: 0xFD3B, offset: 0xFD3B, size: 0x8, addend: 0x0, symName: __ZNKSt3__125__bucket_list_deallocatorINS_9allocatorIPNS_16__hash_node_baseIPNS_11__hash_nodeINS_17__hash_value_typeIiiEEPvEEEEEEE4sizeB8ue170006Ev, symObjAddr: 0x2950, symBinAddr: 0x1000041A8, symSize: 0x28 }
  - { offsetInCU: 0xFD61, offset: 0xFD61, size: 0x8, addend: 0x0, symName: __ZNKSt3__117__compressed_pairIPPNS_16__hash_node_baseIPNS_11__hash_nodeINS_17__hash_value_typeIiiEEPvEEEENS_25__bucket_list_deallocatorINS_9allocatorIS9_EEEEE6secondB8ue170006Ev, symObjAddr: 0x2978, symBinAddr: 0x1000041D0, symSize: 0x28 }
  - { offsetInCU: 0xFD87, offset: 0xFD87, size: 0x8, addend: 0x0, symName: __ZNKSt3__122__compressed_pair_elemINS_25__bucket_list_deallocatorINS_9allocatorIPNS_16__hash_node_baseIPNS_11__hash_nodeINS_17__hash_value_typeIiiEEPvEEEEEEEELi1ELb0EE5__getB8ue170006Ev, symObjAddr: 0x29A0, symBinAddr: 0x1000041F8, symSize: 0x14 }
  - { offsetInCU: 0xFDAD, offset: 0xFDAD, size: 0x8, addend: 0x0, symName: __ZNKSt3__117__compressed_pairImNS_9allocatorIPNS_16__hash_node_baseIPNS_11__hash_nodeINS_17__hash_value_typeIiiEEPvEEEEEEE5firstB8ue170006Ev, symObjAddr: 0x29B4, symBinAddr: 0x10000420C, symSize: 0x24 }
  - { offsetInCU: 0xFDD3, offset: 0xFDD3, size: 0x8, addend: 0x0, symName: __ZNKSt3__122__compressed_pair_elemImLi0ELb0EE5__getB8ue170006Ev, symObjAddr: 0x29D8, symBinAddr: 0x100004230, symSize: 0x14 }
  - { offsetInCU: 0xFDF9, offset: 0xFDF9, size: 0x8, addend: 0x0, symName: __ZNKSt3__117__compressed_pairIPPNS_16__hash_node_baseIPNS_11__hash_nodeINS_17__hash_value_typeIiiEEPvEEEENS_25__bucket_list_deallocatorINS_9allocatorIS9_EEEEE5firstB8ue170006Ev, symObjAddr: 0x29EC, symBinAddr: 0x100004244, symSize: 0x24 }
  - { offsetInCU: 0xFE1F, offset: 0xFE1F, size: 0x8, addend: 0x0, symName: __ZNKSt3__122__compressed_pair_elemIPPNS_16__hash_node_baseIPNS_11__hash_nodeINS_17__hash_value_typeIiiEEPvEEEELi0ELb0EE5__getB8ue170006Ev, symObjAddr: 0x2A10, symBinAddr: 0x100004268, symSize: 0x14 }
  - { offsetInCU: 0xFE45, offset: 0xFE45, size: 0x8, addend: 0x0, symName: __ZNSt3__117__compressed_pairIfNS_21__unordered_map_equalIiNS_17__hash_value_typeIiiEENS_8equal_toIiEENS_4hashIiEELb1EEEE6secondB8ue170006Ev, symObjAddr: 0x2A24, symBinAddr: 0x10000427C, symSize: 0x24 }
  - { offsetInCU: 0xFE6B, offset: 0xFE6B, size: 0x8, addend: 0x0, symName: __ZNSt3__122__compressed_pair_elemINS_21__unordered_map_equalIiNS_17__hash_value_typeIiiEENS_8equal_toIiEENS_4hashIiEELb1EEELi1ELb1EE5__getB8ue170006Ev, symObjAddr: 0x2A48, symBinAddr: 0x1000042A0, symSize: 0x14 }
  - { offsetInCU: 0xFE91, offset: 0xFE91, size: 0x8, addend: 0x0, symName: __ZNKSt3__18equal_toIiEclB8ue170006ERKiS3_, symObjAddr: 0x2A5C, symBinAddr: 0x1000042B4, symSize: 0x34 }
  - { offsetInCU: 0xFED5, offset: 0xFED5, size: 0x8, addend: 0x0, symName: __ZNKSt3__117__hash_value_typeIiiE11__get_valueB8ue170006Ev, symObjAddr: 0x2A90, symBinAddr: 0x1000042E8, symSize: 0x14 }
  - { offsetInCU: 0xFEFB, offset: 0xFEFB, size: 0x8, addend: 0x0, symName: __ZNSt3__114pointer_traitsIPNS_16__hash_node_baseIPNS_11__hash_nodeINS_17__hash_value_typeIiiEEPvEEEEE10pointer_toB8ue170006ERS8_, symObjAddr: 0x2AA4, symBinAddr: 0x1000042FC, symSize: 0x14 }
  - { offsetInCU: 0xFF1E, offset: 0xFF1E, size: 0x8, addend: 0x0, symName: __ZNSt3__112__hash_tableINS_17__hash_value_typeIiiEENS_22__unordered_map_hasherIiS2_NS_4hashIiEENS_8equal_toIiEELb1EEENS_21__unordered_map_equalIiS2_S7_S5_Lb1EEENS_9allocatorIS2_EEE12__node_allocB8ue170006Ev, symObjAddr: 0x2AB8, symBinAddr: 0x100004310, symSize: 0x28 }
  - { offsetInCU: 0xFF44, offset: 0xFF44, size: 0x8, addend: 0x0, symName: __ZNSt3__116allocator_traitsINS_9allocatorINS_11__hash_nodeINS_17__hash_value_typeIiiEEPvEEEEE8allocateB8ue170006ERS7_m, symObjAddr: 0x2AE0, symBinAddr: 0x100004338, symSize: 0x2C }
  - { offsetInCU: 0xFF77, offset: 0xFF77, size: 0x8, addend: 0x0, symName: __ZNSt3__122__hash_node_destructorINS_9allocatorINS_11__hash_nodeINS_17__hash_value_typeIiiEEPvEEEEEC1B8ue170006ERS7_b, symObjAddr: 0x2B0C, symBinAddr: 0x100004364, symSize: 0x48 }
  - { offsetInCU: 0xFFC4, offset: 0xFFC4, size: 0x8, addend: 0x0, symName: __ZNSt3__110unique_ptrINS_11__hash_nodeINS_17__hash_value_typeIiiEEPvEENS_22__hash_node_destructorINS_9allocatorIS5_EEEEEC1B8ue170006ILb1EvEEPS5_NS_16__dependent_typeINS_27__unique_ptr_deleter_sfinaeIS9_EEXT_EE20__good_rval_ref_typeE, symObjAddr: 0x2B54, symBinAddr: 0x1000043AC, symSize: 0x3C }
  - { offsetInCU: 0x10015, offset: 0x10015, size: 0x8, addend: 0x0, symName: __ZNSt3__116allocator_traitsINS_9allocatorINS_11__hash_nodeINS_17__hash_value_typeIiiEEPvEEEEE9constructB8ue170006INS_4pairIKiiEEJRKNS_21piecewise_construct_tENS_5tupleIJOiEEENSG_IJEEEEvEEvRS7_PT_DpOT0_, symObjAddr: 0x2B90, symBinAddr: 0x1000043E8, symSize: 0x44 }
  - { offsetInCU: 0x10094, offset: 0x10094, size: 0x8, addend: 0x0, symName: __ZNSt3__122__hash_key_value_typesINS_17__hash_value_typeIiiEEE9__get_ptrB8ue170006ERS2_, symObjAddr: 0x2BD4, symBinAddr: 0x10000442C, symSize: 0x24 }
  - { offsetInCU: 0x100B7, offset: 0x100B7, size: 0x8, addend: 0x0, symName: __ZNSt3__110unique_ptrINS_11__hash_nodeINS_17__hash_value_typeIiiEEPvEENS_22__hash_node_destructorINS_9allocatorIS5_EEEEE11get_deleterB8ue170006Ev, symObjAddr: 0x2BF8, symBinAddr: 0x100004450, symSize: 0x24 }
  - { offsetInCU: 0x100DD, offset: 0x100DD, size: 0x8, addend: 0x0, symName: __ZNSt3__117__compressed_pairINS_16__hash_node_baseIPNS_11__hash_nodeINS_17__hash_value_typeIiiEEPvEEEENS_9allocatorIS6_EEE6secondB8ue170006Ev, symObjAddr: 0x2C1C, symBinAddr: 0x100004474, symSize: 0x24 }
  - { offsetInCU: 0x10103, offset: 0x10103, size: 0x8, addend: 0x0, symName: __ZNSt3__122__compressed_pair_elemINS_9allocatorINS_11__hash_nodeINS_17__hash_value_typeIiiEEPvEEEELi1ELb1EE5__getB8ue170006Ev, symObjAddr: 0x2C40, symBinAddr: 0x100004498, symSize: 0x14 }
  - { offsetInCU: 0x10129, offset: 0x10129, size: 0x8, addend: 0x0, symName: __ZNSt3__19allocatorINS_11__hash_nodeINS_17__hash_value_typeIiiEEPvEEE8allocateB8ue170006Em, symObjAddr: 0x2C54, symBinAddr: 0x1000044AC, symSize: 0x5C }
  - { offsetInCU: 0x10167, offset: 0x10167, size: 0x8, addend: 0x0, symName: __ZNSt3__116allocator_traitsINS_9allocatorINS_11__hash_nodeINS_17__hash_value_typeIiiEEPvEEEEE8max_sizeB8ue170006IS7_vEEmRKS7_, symObjAddr: 0x2CB0, symBinAddr: 0x100004508, symSize: 0x24 }
  - { offsetInCU: 0x10195, offset: 0x10195, size: 0x8, addend: 0x0, symName: __ZNKSt3__19allocatorINS_11__hash_nodeINS_17__hash_value_typeIiiEEPvEEE8max_sizeB8ue170006Ev, symObjAddr: 0x2CD4, symBinAddr: 0x10000452C, symSize: 0x18 }
  - { offsetInCU: 0x101BB, offset: 0x101BB, size: 0x8, addend: 0x0, symName: __ZNSt3__122__hash_node_destructorINS_9allocatorINS_11__hash_nodeINS_17__hash_value_typeIiiEEPvEEEEEC2B8ue170006ERS7_b, symObjAddr: 0x2CEC, symBinAddr: 0x100004544, symSize: 0x38 }
  - { offsetInCU: 0x10203, offset: 0x10203, size: 0x8, addend: 0x0, symName: __ZNSt3__110unique_ptrINS_11__hash_nodeINS_17__hash_value_typeIiiEEPvEENS_22__hash_node_destructorINS_9allocatorIS5_EEEEEC2B8ue170006ILb1EvEEPS5_NS_16__dependent_typeINS_27__unique_ptr_deleter_sfinaeIS9_EEXT_EE20__good_rval_ref_typeE, symObjAddr: 0x2D24, symBinAddr: 0x10000457C, symSize: 0x48 }
  - { offsetInCU: 0x10254, offset: 0x10254, size: 0x8, addend: 0x0, symName: __ZNSt3__117__compressed_pairIPNS_11__hash_nodeINS_17__hash_value_typeIiiEEPvEENS_22__hash_node_destructorINS_9allocatorIS5_EEEEEC1B8ue170006IRS6_SA_EEOT_OT0_, symObjAddr: 0x2D6C, symBinAddr: 0x1000045C4, symSize: 0x3C }
  - { offsetInCU: 0x102AC, offset: 0x102AC, size: 0x8, addend: 0x0, symName: __ZNSt3__117__compressed_pairIPNS_11__hash_nodeINS_17__hash_value_typeIiiEEPvEENS_22__hash_node_destructorINS_9allocatorIS5_EEEEEC2B8ue170006IRS6_SA_EEOT_OT0_, symObjAddr: 0x2DA8, symBinAddr: 0x100004600, symSize: 0x48 }
  - { offsetInCU: 0x10304, offset: 0x10304, size: 0x8, addend: 0x0, symName: __ZNSt3__122__compressed_pair_elemIPNS_11__hash_nodeINS_17__hash_value_typeIiiEEPvEELi0ELb0EEC2B8ue170006IRS6_vEEOT_, symObjAddr: 0x2DF0, symBinAddr: 0x100004648, symSize: 0x24 }
  - { offsetInCU: 0x10346, offset: 0x10346, size: 0x8, addend: 0x0, symName: __ZNSt3__122__compressed_pair_elemINS_22__hash_node_destructorINS_9allocatorINS_11__hash_nodeINS_17__hash_value_typeIiiEEPvEEEEEELi1ELb0EEC2B8ue170006IS9_vEEOT_, symObjAddr: 0x2E14, symBinAddr: 0x10000466C, symSize: 0x24 }
  - { offsetInCU: 0x10388, offset: 0x10388, size: 0x8, addend: 0x0, symName: __ZNSt3__19allocatorINS_11__hash_nodeINS_17__hash_value_typeIiiEEPvEEE9constructB8ue170006INS_4pairIKiiEEJRKNS_21piecewise_construct_tENS_5tupleIJOiEEENSE_IJEEEEEEvPT_DpOT0_, symObjAddr: 0x2E38, symBinAddr: 0x100004690, symSize: 0x44 }
  - { offsetInCU: 0x10404, offset: 0x10404, size: 0x8, addend: 0x0, symName: __ZNSt3__14pairIKiiEC1B8ue170006IJOiEJEEENS_21piecewise_construct_tENS_5tupleIJDpT_EEENS6_IJDpT0_EEE, symObjAddr: 0x2E7C, symBinAddr: 0x1000046D4, symSize: 0x44 }
  - { offsetInCU: 0x1046B, offset: 0x1046B, size: 0x8, addend: 0x0, symName: __ZNSt3__14pairIKiiEC1B8ue170006IJOiEJEJLm0EEJEEENS_21piecewise_construct_tERNS_5tupleIJDpT_EEERNS6_IJDpT0_EEENS_15__tuple_indicesIJXspT1_EEEENSF_IJXspT2_EEEE, symObjAddr: 0x2EC0, symBinAddr: 0x100004718, symSize: 0x3C }
  - { offsetInCU: 0x104F8, offset: 0x104F8, size: 0x8, addend: 0x0, symName: __ZNSt3__14pairIKiiEC2B8ue170006IJOiEJEJLm0EEJEEENS_21piecewise_construct_tERNS_5tupleIJDpT_EEERNS6_IJDpT0_EEENS_15__tuple_indicesIJXspT1_EEEENSF_IJXspT2_EEEE, symObjAddr: 0x2EFC, symBinAddr: 0x100004754, symSize: 0x48 }
  - { offsetInCU: 0x10585, offset: 0x10585, size: 0x8, addend: 0x0, symName: __ZNSt3__112__tuple_leafILm0EOiLb0EE3getB8ue170006Ev, symObjAddr: 0x2F68, symBinAddr: 0x1000047C0, symSize: 0x18 }
  - { offsetInCU: 0x105AB, offset: 0x105AB, size: 0x8, addend: 0x0, symName: __ZNSt3__117__compressed_pairIPNS_11__hash_nodeINS_17__hash_value_typeIiiEEPvEENS_22__hash_node_destructorINS_9allocatorIS5_EEEEE6secondB8ue170006Ev, symObjAddr: 0x2F80, symBinAddr: 0x1000047D8, symSize: 0x28 }
  - { offsetInCU: 0x105D1, offset: 0x105D1, size: 0x8, addend: 0x0, symName: __ZNSt3__122__compressed_pair_elemINS_22__hash_node_destructorINS_9allocatorINS_11__hash_nodeINS_17__hash_value_typeIiiEEPvEEEEEELi1ELb0EE5__getB8ue170006Ev, symObjAddr: 0x2FA8, symBinAddr: 0x100004800, symSize: 0x14 }
  - { offsetInCU: 0x105F7, offset: 0x105F7, size: 0x8, addend: 0x0, symName: __ZNSt3__117__compressed_pairImNS_22__unordered_map_hasherIiNS_17__hash_value_typeIiiEENS_4hashIiEENS_8equal_toIiEELb1EEEE5firstB8ue170006Ev, symObjAddr: 0x2FBC, symBinAddr: 0x100004814, symSize: 0x24 }
  - { offsetInCU: 0x1061D, offset: 0x1061D, size: 0x8, addend: 0x0, symName: __ZNSt3__122__compressed_pair_elemImLi0ELb0EE5__getB8ue170006Ev, symObjAddr: 0x2FE0, symBinAddr: 0x100004838, symSize: 0x14 }
  - { offsetInCU: 0x10643, offset: 0x10643, size: 0x8, addend: 0x0, symName: __ZNSt3__117__compressed_pairIfNS_21__unordered_map_equalIiNS_17__hash_value_typeIiiEENS_8equal_toIiEENS_4hashIiEELb1EEEE5firstB8ue170006Ev, symObjAddr: 0x2FF4, symBinAddr: 0x10000484C, symSize: 0x24 }
  - { offsetInCU: 0x10669, offset: 0x10669, size: 0x8, addend: 0x0, symName: __ZNSt3__122__compressed_pair_elemIfLi0ELb0EE5__getB8ue170006Ev, symObjAddr: 0x3018, symBinAddr: 0x100004870, symSize: 0x14 }
  - { offsetInCU: 0x1068F, offset: 0x1068F, size: 0x8, addend: 0x0, symName: __ZNSt3__112__hash_tableINS_17__hash_value_typeIiiEENS_22__unordered_map_hasherIiS2_NS_4hashIiEENS_8equal_toIiEELb1EEENS_21__unordered_map_equalIiS2_S7_S5_Lb1EEENS_9allocatorIS2_EEE8__rehashILb1EEEvm, symObjAddr: 0x302C, symBinAddr: 0x100004884, symSize: 0x1A8 }
  - { offsetInCU: 0x106DF, offset: 0x106DF, size: 0x8, addend: 0x0, symName: __ZNSt3__112__hash_tableINS_17__hash_value_typeIiiEENS_22__unordered_map_hasherIiS2_NS_4hashIiEENS_8equal_toIiEELb1EEENS_21__unordered_map_equalIiS2_S7_S5_Lb1EEENS_9allocatorIS2_EEE11__do_rehashILb1EEEvm, symObjAddr: 0x31D4, symBinAddr: 0x100004A2C, symSize: 0x288 }
  - { offsetInCU: 0x107C6, offset: 0x107C6, size: 0x8, addend: 0x0, symName: __ZNSt3__110unique_ptrIA_PNS_16__hash_node_baseIPNS_11__hash_nodeINS_17__hash_value_typeIiiEEPvEEEENS_25__bucket_list_deallocatorINS_9allocatorIS9_EEEEE11get_deleterB8ue170006Ev, symObjAddr: 0x34C8, symBinAddr: 0x100004D20, symSize: 0x24 }
  - { offsetInCU: 0x107EC, offset: 0x107EC, size: 0x8, addend: 0x0, symName: __ZNSt3__125__bucket_list_deallocatorINS_9allocatorIPNS_16__hash_node_baseIPNS_11__hash_nodeINS_17__hash_value_typeIiiEEPvEEEEEEE7__allocB8ue170006Ev, symObjAddr: 0x34EC, symBinAddr: 0x100004D44, symSize: 0x24 }
  - { offsetInCU: 0x10812, offset: 0x10812, size: 0x8, addend: 0x0, symName: __ZNSt3__110unique_ptrIA_PNS_16__hash_node_baseIPNS_11__hash_nodeINS_17__hash_value_typeIiiEEPvEEEENS_25__bucket_list_deallocatorINS_9allocatorIS9_EEEEE5resetB8ue170006IPS9_EENS_9enable_ifIXsr28_CheckArrayPointerConversionIT_EE5valueEvE4typeESJ_, symObjAddr: 0x3510, symBinAddr: 0x100004D68, symSize: 0x78 }
  - { offsetInCU: 0x1085F, offset: 0x1085F, size: 0x8, addend: 0x0, symName: __ZNSt3__116allocator_traitsINS_9allocatorIPNS_16__hash_node_baseIPNS_11__hash_nodeINS_17__hash_value_typeIiiEEPvEEEEEEE8allocateB8ue170006ERSB_m, symObjAddr: 0x3588, symBinAddr: 0x100004DE0, symSize: 0x2C }
  - { offsetInCU: 0x10892, offset: 0x10892, size: 0x8, addend: 0x0, symName: __ZNSt3__125__bucket_list_deallocatorINS_9allocatorIPNS_16__hash_node_baseIPNS_11__hash_nodeINS_17__hash_value_typeIiiEEPvEEEEEEE4sizeB8ue170006Ev, symObjAddr: 0x35B4, symBinAddr: 0x100004E0C, symSize: 0x24 }
  - { offsetInCU: 0x108B8, offset: 0x108B8, size: 0x8, addend: 0x0, symName: __ZNSt3__117__compressed_pairIPPNS_16__hash_node_baseIPNS_11__hash_nodeINS_17__hash_value_typeIiiEEPvEEEENS_25__bucket_list_deallocatorINS_9allocatorIS9_EEEEE6secondB8ue170006Ev, symObjAddr: 0x35D8, symBinAddr: 0x100004E30, symSize: 0x28 }
  - { offsetInCU: 0x108DE, offset: 0x108DE, size: 0x8, addend: 0x0, symName: __ZNSt3__122__compressed_pair_elemINS_25__bucket_list_deallocatorINS_9allocatorIPNS_16__hash_node_baseIPNS_11__hash_nodeINS_17__hash_value_typeIiiEEPvEEEEEEEELi1ELb0EE5__getB8ue170006Ev, symObjAddr: 0x3600, symBinAddr: 0x100004E58, symSize: 0x14 }
  - { offsetInCU: 0x10904, offset: 0x10904, size: 0x8, addend: 0x0, symName: __ZNSt3__117__compressed_pairImNS_9allocatorIPNS_16__hash_node_baseIPNS_11__hash_nodeINS_17__hash_value_typeIiiEEPvEEEEEEE6secondB8ue170006Ev, symObjAddr: 0x3614, symBinAddr: 0x100004E6C, symSize: 0x24 }
  - { offsetInCU: 0x1092A, offset: 0x1092A, size: 0x8, addend: 0x0, symName: __ZNSt3__122__compressed_pair_elemINS_9allocatorIPNS_16__hash_node_baseIPNS_11__hash_nodeINS_17__hash_value_typeIiiEEPvEEEEEELi1ELb1EE5__getB8ue170006Ev, symObjAddr: 0x3638, symBinAddr: 0x100004E90, symSize: 0x14 }
  - { offsetInCU: 0x10950, offset: 0x10950, size: 0x8, addend: 0x0, symName: __ZNSt3__117__compressed_pairIPPNS_16__hash_node_baseIPNS_11__hash_nodeINS_17__hash_value_typeIiiEEPvEEEENS_25__bucket_list_deallocatorINS_9allocatorIS9_EEEEE5firstB8ue170006Ev, symObjAddr: 0x364C, symBinAddr: 0x100004EA4, symSize: 0x24 }
  - { offsetInCU: 0x10976, offset: 0x10976, size: 0x8, addend: 0x0, symName: __ZNSt3__125__bucket_list_deallocatorINS_9allocatorIPNS_16__hash_node_baseIPNS_11__hash_nodeINS_17__hash_value_typeIiiEEPvEEEEEEEclB8ue170006EPSA_, symObjAddr: 0x3670, symBinAddr: 0x100004EC8, symSize: 0x58 }
  - { offsetInCU: 0x109AB, offset: 0x109AB, size: 0x8, addend: 0x0, symName: __ZNSt3__122__compressed_pair_elemIPPNS_16__hash_node_baseIPNS_11__hash_nodeINS_17__hash_value_typeIiiEEPvEEEELi0ELb0EE5__getB8ue170006Ev, symObjAddr: 0x36C8, symBinAddr: 0x100004F20, symSize: 0x14 }
  - { offsetInCU: 0x109D1, offset: 0x109D1, size: 0x8, addend: 0x0, symName: __ZNSt3__116allocator_traitsINS_9allocatorIPNS_16__hash_node_baseIPNS_11__hash_nodeINS_17__hash_value_typeIiiEEPvEEEEEEE10deallocateB8ue170006ERSB_PSA_m, symObjAddr: 0x36DC, symBinAddr: 0x100004F34, symSize: 0x34 }
  - { offsetInCU: 0x10A13, offset: 0x10A13, size: 0x8, addend: 0x0, symName: __ZNSt3__19allocatorIPNS_16__hash_node_baseIPNS_11__hash_nodeINS_17__hash_value_typeIiiEEPvEEEEE10deallocateB8ue170006EPS9_m, symObjAddr: 0x3710, symBinAddr: 0x100004F68, symSize: 0x40 }
  - { offsetInCU: 0x10A55, offset: 0x10A55, size: 0x8, addend: 0x0, symName: __ZNSt3__19allocatorIPNS_16__hash_node_baseIPNS_11__hash_nodeINS_17__hash_value_typeIiiEEPvEEEEE8allocateB8ue170006Em, symObjAddr: 0x3750, symBinAddr: 0x100004FA8, symSize: 0x58 }
  - { offsetInCU: 0x10A93, offset: 0x10A93, size: 0x8, addend: 0x0, symName: __ZNSt3__116allocator_traitsINS_9allocatorIPNS_16__hash_node_baseIPNS_11__hash_nodeINS_17__hash_value_typeIiiEEPvEEEEEEE8max_sizeB8ue170006ISB_vEEmRKSB_, symObjAddr: 0x37A8, symBinAddr: 0x100005000, symSize: 0x24 }
  - { offsetInCU: 0x10AC1, offset: 0x10AC1, size: 0x8, addend: 0x0, symName: __ZNKSt3__19allocatorIPNS_16__hash_node_baseIPNS_11__hash_nodeINS_17__hash_value_typeIiiEEPvEEEEE8max_sizeB8ue170006Ev, symObjAddr: 0x37CC, symBinAddr: 0x100005024, symSize: 0x14 }
  - { offsetInCU: 0x10AE7, offset: 0x10AE7, size: 0x8, addend: 0x0, symName: __ZNSt3__117__compressed_pairImNS_9allocatorIPNS_16__hash_node_baseIPNS_11__hash_nodeINS_17__hash_value_typeIiiEEPvEEEEEEE5firstB8ue170006Ev, symObjAddr: 0x37E0, symBinAddr: 0x100005038, symSize: 0x24 }
  - { offsetInCU: 0x10B0D, offset: 0x10B0D, size: 0x8, addend: 0x0, symName: __ZNSt3__122__compressed_pair_elemINS_16__hash_node_baseIPNS_11__hash_nodeINS_17__hash_value_typeIiiEEPvEEEELi0ELb0EE5__getB8ue170006Ev, symObjAddr: 0x3874, symBinAddr: 0x1000050CC, symSize: 0x14 }
  - { offsetInCU: 0x10B33, offset: 0x10B33, size: 0x8, addend: 0x0, symName: __ZNKSt3__117__compressed_pairIPNS_11__hash_nodeINS_17__hash_value_typeIiiEEPvEENS_22__hash_node_destructorINS_9allocatorIS5_EEEEE5firstB8ue170006Ev, symObjAddr: 0x3888, symBinAddr: 0x1000050E0, symSize: 0x24 }
  - { offsetInCU: 0x10B59, offset: 0x10B59, size: 0x8, addend: 0x0, symName: __ZNKSt3__122__compressed_pair_elemIPNS_11__hash_nodeINS_17__hash_value_typeIiiEEPvEELi0ELb0EE5__getB8ue170006Ev, symObjAddr: 0x38AC, symBinAddr: 0x100005104, symSize: 0x14 }
  - { offsetInCU: 0x10B7F, offset: 0x10B7F, size: 0x8, addend: 0x0, symName: __ZNSt3__117__compressed_pairIPNS_11__hash_nodeINS_17__hash_value_typeIiiEEPvEENS_22__hash_node_destructorINS_9allocatorIS5_EEEEE5firstB8ue170006Ev, symObjAddr: 0x38C0, symBinAddr: 0x100005118, symSize: 0x24 }
  - { offsetInCU: 0x10BA5, offset: 0x10BA5, size: 0x8, addend: 0x0, symName: __ZNSt3__122__compressed_pair_elemIPNS_11__hash_nodeINS_17__hash_value_typeIiiEEPvEELi0ELb0EE5__getB8ue170006Ev, symObjAddr: 0x38E4, symBinAddr: 0x10000513C, symSize: 0x14 }
  - { offsetInCU: 0x10BCB, offset: 0x10BCB, size: 0x8, addend: 0x0, symName: __ZNSt3__110unique_ptrINS_11__hash_nodeINS_17__hash_value_typeIiiEEPvEENS_22__hash_node_destructorINS_9allocatorIS5_EEEEED2B8ue170006Ev, symObjAddr: 0x38F8, symBinAddr: 0x100005150, symSize: 0x30 }
  - { offsetInCU: 0x10BF5, offset: 0x10BF5, size: 0x8, addend: 0x0, symName: __ZNSt3__110unique_ptrINS_11__hash_nodeINS_17__hash_value_typeIiiEEPvEENS_22__hash_node_destructorINS_9allocatorIS5_EEEEE5resetB8ue170006EPS5_, symObjAddr: 0x3928, symBinAddr: 0x100005180, symSize: 0x78 }
  - { offsetInCU: 0x10C39, offset: 0x10C39, size: 0x8, addend: 0x0, symName: __ZNSt3__122__hash_node_destructorINS_9allocatorINS_11__hash_nodeINS_17__hash_value_typeIiiEEPvEEEEEclB8ue170006EPS6_, symObjAddr: 0x39A0, symBinAddr: 0x1000051F8, symSize: 0x98 }
  - { offsetInCU: 0x10C6E, offset: 0x10C6E, size: 0x8, addend: 0x0, symName: __ZNSt3__116allocator_traitsINS_9allocatorINS_11__hash_nodeINS_17__hash_value_typeIiiEEPvEEEEE7destroyB8ue170006INS_4pairIKiiEEvvEEvRS7_PT_, symObjAddr: 0x3A38, symBinAddr: 0x100005290, symSize: 0x14 }
  - { offsetInCU: 0x10CA8, offset: 0x10CA8, size: 0x8, addend: 0x0, symName: __ZNSt3__116allocator_traitsINS_9allocatorINS_11__hash_nodeINS_17__hash_value_typeIiiEEPvEEEEE10deallocateB8ue170006ERS7_PS6_m, symObjAddr: 0x3A4C, symBinAddr: 0x1000052A4, symSize: 0x34 }
  - { offsetInCU: 0x10CEA, offset: 0x10CEA, size: 0x8, addend: 0x0, symName: __ZNSt3__19allocatorINS_11__hash_nodeINS_17__hash_value_typeIiiEEPvEEE10deallocateB8ue170006EPS5_m, symObjAddr: 0x3A80, symBinAddr: 0x1000052D8, symSize: 0x44 }
  - { offsetInCU: 0x10D2C, offset: 0x10D2C, size: 0x8, addend: 0x0, symName: __ZNSt3__115__hash_iteratorIPNS_11__hash_nodeINS_17__hash_value_typeIiiEEPvEEEC2B8ue170006EPNS_16__hash_node_baseIS6_EE, symObjAddr: 0x3AC4, symBinAddr: 0x10000531C, symSize: 0x20 }
  - { offsetInCU: 0x10D65, offset: 0x10D65, size: 0x8, addend: 0x0, symName: __ZNSt3__14pairINS_15__hash_iteratorIPNS_11__hash_nodeINS_17__hash_value_typeIiiEEPvEEEEbEC2B8ue170006IS8_RbLS5_0EEEOT_OT0_, symObjAddr: 0x3AE4, symBinAddr: 0x10000533C, symSize: 0x38 }
  - { offsetInCU: 0x10DC3, offset: 0x10DC3, size: 0x8, addend: 0x0, symName: __ZNSt3__15tupleIJOiEEC1B8ue170006IJiELi0EEEDpOT_, symObjAddr: 0x3B1C, symBinAddr: 0x100005374, symSize: 0x34 }
  - { offsetInCU: 0x10E0D, offset: 0x10E0D, size: 0x8, addend: 0x0, symName: __ZNSt3__15tupleIJOiEEC2B8ue170006IJiELi0EEEDpOT_, symObjAddr: 0x3B50, symBinAddr: 0x1000053A8, symSize: 0x34 }
  - { offsetInCU: 0x10E57, offset: 0x10E57, size: 0x8, addend: 0x0, symName: __ZNSt3__112__tuple_implINS_15__tuple_indicesIJLm0EEEEJOiEEC1B8ue170006IJLm0EEJS3_EJEJEJiEEENS1_IJXspT_EEEENS_13__tuple_typesIJDpT0_EEENS1_IJXspT1_EEEENS7_IJDpT2_EEEDpOT3_, symObjAddr: 0x3B84, symBinAddr: 0x1000053DC, symSize: 0x34 }
  - { offsetInCU: 0x10EE8, offset: 0x10EE8, size: 0x8, addend: 0x0, symName: __ZNSt3__112__tuple_implINS_15__tuple_indicesIJLm0EEEEJOiEEC2B8ue170006IJLm0EEJS3_EJEJEJiEEENS1_IJXspT_EEEENS_13__tuple_typesIJDpT0_EEENS1_IJXspT1_EEEENS7_IJDpT2_EEEDpOT3_, symObjAddr: 0x3BB8, symBinAddr: 0x100005410, symSize: 0x34 }
  - { offsetInCU: 0x10F79, offset: 0x10F79, size: 0x8, addend: 0x0, symName: __ZNSt3__112__tuple_leafILm0EOiLb0EEC2B8ue170006IivEEOT_, symObjAddr: 0x3BEC, symBinAddr: 0x100005444, symSize: 0x20 }
  - { offsetInCU: 0x10FBC, offset: 0x10FBC, size: 0x8, addend: 0x0, symName: __ZNSt3__114pointer_traitsIPNS_17__hash_value_typeIiiEEE10pointer_toB8ue170006ERS2_, symObjAddr: 0x3C0C, symBinAddr: 0x100005464, symSize: 0x14 }
  - { offsetInCU: 0x10FDF, offset: 0x10FDF, size: 0x8, addend: 0x0, symName: __ZNSt3__112__hash_tableINS_17__hash_value_typeIiiEENS_22__unordered_map_hasherIiS2_NS_4hashIiEENS_8equal_toIiEELb1EEENS_21__unordered_map_equalIiS2_S7_S5_Lb1EEENS_9allocatorIS2_EEE25__emplace_unique_key_argsIiJRKNS_21piecewise_construct_tENS_5tupleIJRKiEEENSI_IJEEEEEENS_4pairINS_15__hash_iteratorIPNS_11__hash_nodeIS2_PvEEEEbEERKT_DpOT0_, symObjAddr: 0x3C20, symBinAddr: 0x100005478, symSize: 0x4B0 }
  - { offsetInCU: 0x110E9, offset: 0x110E9, size: 0x8, addend: 0x0, symName: __ZNSt3__112__hash_tableINS_17__hash_value_typeIiiEENS_22__unordered_map_hasherIiS2_NS_4hashIiEENS_8equal_toIiEELb1EEENS_21__unordered_map_equalIiS2_S7_S5_Lb1EEENS_9allocatorIS2_EEE21__construct_node_hashIRKNS_21piecewise_construct_tEJNS_5tupleIJRKiEEENSI_IJEEEEEENS_10unique_ptrINS_11__hash_nodeIS2_PvEENS_22__hash_node_destructorINSB_ISQ_EEEEEEmOT_DpOT0_, symObjAddr: 0x40FC, symBinAddr: 0x100005954, symSize: 0x150 }
  - { offsetInCU: 0x11185, offset: 0x11185, size: 0x8, addend: 0x0, symName: __ZNSt3__116allocator_traitsINS_9allocatorINS_11__hash_nodeINS_17__hash_value_typeIiiEEPvEEEEE9constructB8ue170006INS_4pairIKiiEEJRKNS_21piecewise_construct_tENS_5tupleIJRSB_EEENSG_IJEEEEvEEvRS7_PT_DpOT0_, symObjAddr: 0x424C, symBinAddr: 0x100005AA4, symSize: 0x44 }
  - { offsetInCU: 0x11204, offset: 0x11204, size: 0x8, addend: 0x0, symName: __ZNSt3__19allocatorINS_11__hash_nodeINS_17__hash_value_typeIiiEEPvEEE9constructB8ue170006INS_4pairIKiiEEJRKNS_21piecewise_construct_tENS_5tupleIJRS9_EEENSE_IJEEEEEEvPT_DpOT0_, symObjAddr: 0x4290, symBinAddr: 0x100005AE8, symSize: 0x44 }
  - { offsetInCU: 0x11280, offset: 0x11280, size: 0x8, addend: 0x0, symName: __ZNSt3__14pairIKiiEC1B8ue170006IJRS1_EJEEENS_21piecewise_construct_tENS_5tupleIJDpT_EEENS6_IJDpT0_EEE, symObjAddr: 0x42D4, symBinAddr: 0x100005B2C, symSize: 0x44 }
  - { offsetInCU: 0x112E7, offset: 0x112E7, size: 0x8, addend: 0x0, symName: __ZNSt3__14pairIKiiEC1B8ue170006IJRS1_EJEJLm0EEJEEENS_21piecewise_construct_tERNS_5tupleIJDpT_EEERNS6_IJDpT0_EEENS_15__tuple_indicesIJXspT1_EEEENSF_IJXspT2_EEEE, symObjAddr: 0x4318, symBinAddr: 0x100005B70, symSize: 0x3C }
  - { offsetInCU: 0x11374, offset: 0x11374, size: 0x8, addend: 0x0, symName: __ZNSt3__14pairIKiiEC2B8ue170006IJRS1_EJEJLm0EEJEEENS_21piecewise_construct_tERNS_5tupleIJDpT_EEERNS6_IJDpT0_EEENS_15__tuple_indicesIJXspT1_EEEENSF_IJXspT2_EEEE, symObjAddr: 0x4354, symBinAddr: 0x100005BAC, symSize: 0x48 }
  - { offsetInCU: 0x11401, offset: 0x11401, size: 0x8, addend: 0x0, symName: __ZNSt3__112__tuple_leafILm0ERKiLb0EE3getB8ue170006Ev, symObjAddr: 0x43C0, symBinAddr: 0x100005C18, symSize: 0x18 }
  - { offsetInCU: 0x11427, offset: 0x11427, size: 0x8, addend: 0x0, symName: __ZNSt3__15tupleIJRKiEEC1B8ue170006INS_4_AndELi0EEES2_, symObjAddr: 0x43D8, symBinAddr: 0x100005C30, symSize: 0x34 }
  - { offsetInCU: 0x1146F, offset: 0x1146F, size: 0x8, addend: 0x0, symName: __ZNSt3__15tupleIJRKiEEC2B8ue170006INS_4_AndELi0EEES2_, symObjAddr: 0x440C, symBinAddr: 0x100005C64, symSize: 0x34 }
  - { offsetInCU: 0x114B7, offset: 0x114B7, size: 0x8, addend: 0x0, symName: __ZNSt3__112__tuple_implINS_15__tuple_indicesIJLm0EEEEJRKiEEC1B8ue170006IJLm0EEJS4_EJEJEJS4_EEENS1_IJXspT_EEEENS_13__tuple_typesIJDpT0_EEENS1_IJXspT1_EEEENS8_IJDpT2_EEEDpOT3_, symObjAddr: 0x4440, symBinAddr: 0x100005C98, symSize: 0x34 }
  - { offsetInCU: 0x11548, offset: 0x11548, size: 0x8, addend: 0x0, symName: __ZNSt3__112__tuple_implINS_15__tuple_indicesIJLm0EEEEJRKiEEC2B8ue170006IJLm0EEJS4_EJEJEJS4_EEENS1_IJXspT_EEEENS_13__tuple_typesIJDpT0_EEENS1_IJXspT1_EEEENS8_IJDpT2_EEEDpOT3_, symObjAddr: 0x4474, symBinAddr: 0x100005CCC, symSize: 0x34 }
  - { offsetInCU: 0x115D9, offset: 0x115D9, size: 0x8, addend: 0x0, symName: __ZNSt3__112__tuple_leafILm0ERKiLb0EEC2B8ue170006IS2_vEEOT_, symObjAddr: 0x44A8, symBinAddr: 0x100005D00, symSize: 0x20 }
  - { offsetInCU: 0x1161C, offset: 0x1161C, size: 0x8, addend: 0x0, symName: __ZNSt3__112__hash_tableINS_17__hash_value_typeIiiEENS_22__unordered_map_hasherIiS2_NS_4hashIiEENS_8equal_toIiEELb1EEENS_21__unordered_map_equalIiS2_S7_S5_Lb1EEENS_9allocatorIS2_EEE4findIiEENS_15__hash_iteratorIPNS_11__hash_nodeIS2_PvEEEERKT_, symObjAddr: 0x452C, symBinAddr: 0x100005D84, symSize: 0x1B0 }
  - { offsetInCU: 0x116A7, offset: 0x116A7, size: 0x8, addend: 0x0, symName: __ZNSt3__119__hash_map_iteratorINS_15__hash_iteratorIPNS_11__hash_nodeINS_17__hash_value_typeIiiEEPvEEEEEC1B8ue170006ES8_, symObjAddr: 0x46DC, symBinAddr: 0x100005F34, symSize: 0x34 }
  - { offsetInCU: 0x116E0, offset: 0x116E0, size: 0x8, addend: 0x0, symName: __ZNSt3__112__hash_tableINS_17__hash_value_typeIiiEENS_22__unordered_map_hasherIiS2_NS_4hashIiEENS_8equal_toIiEELb1EEENS_21__unordered_map_equalIiS2_S7_S5_Lb1EEENS_9allocatorIS2_EEE3endEv, symObjAddr: 0x4710, symBinAddr: 0x100005F68, symSize: 0x2C }
  - { offsetInCU: 0x11708, offset: 0x11708, size: 0x8, addend: 0x0, symName: __ZNSt3__119__hash_map_iteratorINS_15__hash_iteratorIPNS_11__hash_nodeINS_17__hash_value_typeIiiEEPvEEEEEC2B8ue170006ES8_, symObjAddr: 0x473C, symBinAddr: 0x100005F94, symSize: 0x20 }
  - { offsetInCU: 0x11741, offset: 0x11741, size: 0x8, addend: 0x0, symName: __ZNSt3__113unordered_mapIiiNS_4hashIiEENS_8equal_toIiEENS_9allocatorINS_4pairIKiiEEEEED2B8ue170006Ev, symObjAddr: 0x475C, symBinAddr: 0x100005FB4, symSize: 0x2C }
  - { offsetInCU: 0x1176B, offset: 0x1176B, size: 0x8, addend: 0x0, symName: __ZNSt3__112__hash_tableINS_17__hash_value_typeIiiEENS_22__unordered_map_hasherIiS2_NS_4hashIiEENS_8equal_toIiEELb1EEENS_21__unordered_map_equalIiS2_S7_S5_Lb1EEENS_9allocatorIS2_EEED1Ev, symObjAddr: 0x4788, symBinAddr: 0x100005FE0, symSize: 0x2C }
  - { offsetInCU: 0x11797, offset: 0x11797, size: 0x8, addend: 0x0, symName: __ZNSt3__112__hash_tableINS_17__hash_value_typeIiiEENS_22__unordered_map_hasherIiS2_NS_4hashIiEENS_8equal_toIiEELb1EEENS_21__unordered_map_equalIiS2_S7_S5_Lb1EEENS_9allocatorIS2_EEED2Ev, symObjAddr: 0x47B4, symBinAddr: 0x10000600C, symSize: 0x48 }
  - { offsetInCU: 0x117C3, offset: 0x117C3, size: 0x8, addend: 0x0, symName: __ZNSt3__112__hash_tableINS_17__hash_value_typeIiiEENS_22__unordered_map_hasherIiS2_NS_4hashIiEENS_8equal_toIiEELb1EEENS_21__unordered_map_equalIiS2_S7_S5_Lb1EEENS_9allocatorIS2_EEE17__deallocate_nodeEPNS_16__hash_node_baseIPNS_11__hash_nodeIS2_PvEEEE, symObjAddr: 0x47FC, symBinAddr: 0x100006054, symSize: 0xA4 }
  - { offsetInCU: 0x1182D, offset: 0x1182D, size: 0x8, addend: 0x0, symName: __ZNSt3__110unique_ptrIA_PNS_16__hash_node_baseIPNS_11__hash_nodeINS_17__hash_value_typeIiiEEPvEEEENS_25__bucket_list_deallocatorINS_9allocatorIS9_EEEEED1B8ue170006Ev, symObjAddr: 0x48A0, symBinAddr: 0x1000060F8, symSize: 0x2C }
  - { offsetInCU: 0x11857, offset: 0x11857, size: 0x8, addend: 0x0, symName: __ZNSt3__110unique_ptrIA_PNS_16__hash_node_baseIPNS_11__hash_nodeINS_17__hash_value_typeIiiEEPvEEEENS_25__bucket_list_deallocatorINS_9allocatorIS9_EEEEED2B8ue170006Ev, symObjAddr: 0x48CC, symBinAddr: 0x100006124, symSize: 0x30 }
  - { offsetInCU: 0x11881, offset: 0x11881, size: 0x8, addend: 0x0, symName: __ZNSt3__110unique_ptrIA_PNS_16__hash_node_baseIPNS_11__hash_nodeINS_17__hash_value_typeIiiEEPvEEEENS_25__bucket_list_deallocatorINS_9allocatorIS9_EEEEE5resetB8ue170006EDn, symObjAddr: 0x48FC, symBinAddr: 0x100006154, symSize: 0x6C }
  - { offsetInCU: 0x118C1, offset: 0x118C1, size: 0x8, addend: 0x0, symName: __ZNSt3__16vectorIiNS_9allocatorIiEEED2B8ue170006Ev, symObjAddr: 0x4968, symBinAddr: 0x1000061C0, symSize: 0x40 }
  - { offsetInCU: 0x118EB, offset: 0x118EB, size: 0x8, addend: 0x0, symName: __ZNSt3__16vectorIiNS_9allocatorIiEEEC2B8ue170006ESt16initializer_listIiE, symObjAddr: 0x49A8, symBinAddr: 0x100006200, symSize: 0x120 }
  - { offsetInCU: 0x1193B, offset: 0x1193B, size: 0x8, addend: 0x0, symName: __ZNKSt16initializer_listIiE4sizeB8ue170006Ev, symObjAddr: 0x4AC8, symBinAddr: 0x100006320, symSize: 0x18 }
  - { offsetInCU: 0x11961, offset: 0x11961, size: 0x8, addend: 0x0, symName: __ZNSt3__16vectorIiNS_9allocatorIiEEE18__construct_at_endIPKiS6_EEvT_T0_m, symObjAddr: 0x4AE0, symBinAddr: 0x100006338, symSize: 0x8C }
  - { offsetInCU: 0x119D7, offset: 0x119D7, size: 0x8, addend: 0x0, symName: __ZNKSt16initializer_listIiE5beginB8ue170006Ev, symObjAddr: 0x4B6C, symBinAddr: 0x1000063C4, symSize: 0x18 }
  - { offsetInCU: 0x119FD, offset: 0x119FD, size: 0x8, addend: 0x0, symName: __ZNKSt16initializer_listIiE3endB8ue170006Ev, symObjAddr: 0x4B84, symBinAddr: 0x1000063DC, symSize: 0x20 }
  - { offsetInCU: 0x11A41, offset: 0x11A41, size: 0x8, addend: 0x0, symName: __ZNSt3__14pairIPKiS2_EC1B8ue170006IS2_S2_LPv0EEEOT_OT0_, symObjAddr: 0x4D78, symBinAddr: 0x1000065D0, symSize: 0x3C }
  - { offsetInCU: 0x11A9F, offset: 0x11A9F, size: 0x8, addend: 0x0, symName: __ZNSt3__14pairIPKiS2_EC2B8ue170006IS2_S2_LPv0EEEOT_OT0_, symObjAddr: 0x4DB4, symBinAddr: 0x10000660C, symSize: 0x34 }
  - { offsetInCU: 0x11AFD, offset: 0x11AFD, size: 0x8, addend: 0x0, symName: __ZNSt3__118__unwrap_iter_implIPKiLb1EE8__unwrapB8ue170006ES2_, symObjAddr: 0x4DE8, symBinAddr: 0x100006640, symSize: 0x24 }
  - { offsetInCU: 0x11B43, offset: 0x11B43, size: 0x8, addend: 0x0, symName: __ZNKSt3__114__copy_trivialclB8ue170006IKiiLi0EEENS_4pairIPT_PT0_EES5_S5_S7_, symObjAddr: 0x4F9C, symBinAddr: 0x1000067F4, symSize: 0x48 }
  - { offsetInCU: 0x11BB5, offset: 0x11BB5, size: 0x8, addend: 0x0, symName: __ZNSt3__14pairIPKiPiEC1B8ue170006IRS2_S3_LPv0EEEOT_OT0_, symObjAddr: 0x5164, symBinAddr: 0x1000069BC, symSize: 0x3C }
  - { offsetInCU: 0x11C13, offset: 0x11C13, size: 0x8, addend: 0x0, symName: __ZNSt3__14pairIPKiPiEC2B8ue170006IRS2_S3_LPv0EEEOT_OT0_, symObjAddr: 0x51A0, symBinAddr: 0x1000069F8, symSize: 0x34 }
  - { offsetInCU: 0x11C71, offset: 0x11C71, size: 0x8, addend: 0x0, symName: __ZNSt3__14pairIPKiPiEC1B8ue170006IS2_S3_LPv0EEEOT_OT0_, symObjAddr: 0x51D4, symBinAddr: 0x100006A2C, symSize: 0x3C }
  - { offsetInCU: 0x11CCF, offset: 0x11CCF, size: 0x8, addend: 0x0, symName: __ZNSt3__14pairIPKiPiEC2B8ue170006IS2_S3_LPv0EEEOT_OT0_, symObjAddr: 0x5210, symBinAddr: 0x100006A68, symSize: 0x34 }
  - { offsetInCU: 0x11D2D, offset: 0x11D2D, size: 0x8, addend: 0x0, symName: __ZNSt3__118__unwrap_iter_implIPKiLb1EE8__rewrapB8ue170006ES2_S2_, symObjAddr: 0x5280, symBinAddr: 0x100006AD8, symSize: 0x50 }
  - { offsetInCU: 0x11D5E, offset: 0x11D5E, size: 0x8, addend: 0x0, symName: __ZNSt3__118__unwrap_iter_implIPiLb1EE8__unwrapB8ue170006ES1_, symObjAddr: 0x52D0, symBinAddr: 0x100006B28, symSize: 0x24 }
  - { offsetInCU: 0x11D81, offset: 0x11D81, size: 0x8, addend: 0x0, symName: __ZNSt3__118__unwrap_iter_implIPiLb1EE8__rewrapB8ue170006ES1_S1_, symObjAddr: 0x52F4, symBinAddr: 0x100006B4C, symSize: 0x50 }
  - { offsetInCU: 0x11DB2, offset: 0x11DB2, size: 0x8, addend: 0x0, symName: __ZNSt3__111char_traitsIcE6lengthB8ue170006EPKc, symObjAddr: 0x5530, symBinAddr: 0x100006D88, symSize: 0x34 }
  - { offsetInCU: 0x11DF3, offset: 0x11DF3, size: 0x8, addend: 0x0, symName: __ZNKSt3__113basic_ostreamIcNS_11char_traitsIcEEE6sentrycvbB8ue170006Ev, symObjAddr: 0x5564, symBinAddr: 0x100006DBC, symSize: 0x1C }
  - { offsetInCU: 0x11E19, offset: 0x11E19, size: 0x8, addend: 0x0, symName: __ZNSt3__119ostreambuf_iteratorIcNS_11char_traitsIcEEEC1B8ue170006ERNS_13basic_ostreamIcS2_EE, symObjAddr: 0x57C0, symBinAddr: 0x100007018, symSize: 0x34 }
  - { offsetInCU: 0x11E51, offset: 0x11E51, size: 0x8, addend: 0x0, symName: __ZNKSt3__18ios_base5flagsB8ue170006Ev, symObjAddr: 0x57F4, symBinAddr: 0x10000704C, symSize: 0x18 }
  - { offsetInCU: 0x11E79, offset: 0x11E79, size: 0x8, addend: 0x0, symName: __ZNKSt3__19basic_iosIcNS_11char_traitsIcEEE4fillB8ue170006Ev, symObjAddr: 0x580C, symBinAddr: 0x100007064, symSize: 0x64 }
  - { offsetInCU: 0x11EA1, offset: 0x11EA1, size: 0x8, addend: 0x0, symName: __ZNKSt3__119ostreambuf_iteratorIcNS_11char_traitsIcEEE6failedB8ue170006Ev, symObjAddr: 0x5870, symBinAddr: 0x1000070C8, symSize: 0x24 }
  - { offsetInCU: 0x11EC7, offset: 0x11EC7, size: 0x8, addend: 0x0, symName: __ZNSt3__19basic_iosIcNS_11char_traitsIcEEE8setstateB8ue170006Ej, symObjAddr: 0x5894, symBinAddr: 0x1000070EC, symSize: 0x2C }
  - { offsetInCU: 0x11EFC, offset: 0x11EFC, size: 0x8, addend: 0x0, symName: __ZNKSt3__18ios_base5widthB8ue170006Ev, symObjAddr: 0x58C0, symBinAddr: 0x100007118, symSize: 0x18 }
  - { offsetInCU: 0x11F24, offset: 0x11F24, size: 0x8, addend: 0x0, symName: __ZNSt3__115basic_streambufIcNS_11char_traitsIcEEE5sputnB8ue170006EPKcl, symObjAddr: 0x58D8, symBinAddr: 0x100007130, symSize: 0x3C }
  - { offsetInCU: 0x11F66, offset: 0x11F66, size: 0x8, addend: 0x0, symName: __ZNSt3__112basic_stringIcNS_11char_traitsIcEENS_9allocatorIcEEEC1B8ue170006Emc, symObjAddr: 0x5914, symBinAddr: 0x10000716C, symSize: 0x3C }
  - { offsetInCU: 0x11FAE, offset: 0x11FAE, size: 0x8, addend: 0x0, symName: __ZNKSt3__112basic_stringIcNS_11char_traitsIcEENS_9allocatorIcEEE4dataB8ue170006Ev, symObjAddr: 0x5950, symBinAddr: 0x1000071A8, symSize: 0x28 }
  - { offsetInCU: 0x11FD4, offset: 0x11FD4, size: 0x8, addend: 0x0, symName: __ZNSt3__18ios_base5widthB8ue170006El, symObjAddr: 0x5978, symBinAddr: 0x1000071D0, symSize: 0x2C }
  - { offsetInCU: 0x1201A, offset: 0x1201A, size: 0x8, addend: 0x0, symName: __ZNSt3__112basic_stringIcNS_11char_traitsIcEENS_9allocatorIcEEEC2B8ue170006Emc, symObjAddr: 0x59A4, symBinAddr: 0x1000071FC, symSize: 0x4C }
  - { offsetInCU: 0x12062, offset: 0x12062, size: 0x8, addend: 0x0, symName: __ZNSt3__117__compressed_pairINS_12basic_stringIcNS_11char_traitsIcEENS_9allocatorIcEEE5__repES5_EC1B8ue170006INS_18__default_init_tagESA_EEOT_OT0_, symObjAddr: 0x59F0, symBinAddr: 0x100007248, symSize: 0x3C }
  - { offsetInCU: 0x120BA, offset: 0x120BA, size: 0x8, addend: 0x0, symName: __ZNSt3__117__compressed_pairINS_12basic_stringIcNS_11char_traitsIcEENS_9allocatorIcEEE5__repES5_EC2B8ue170006INS_18__default_init_tagESA_EEOT_OT0_, symObjAddr: 0x5A2C, symBinAddr: 0x100007284, symSize: 0x3C }
  - { offsetInCU: 0x12112, offset: 0x12112, size: 0x8, addend: 0x0, symName: __ZNSt3__122__compressed_pair_elemINS_12basic_stringIcNS_11char_traitsIcEENS_9allocatorIcEEE5__repELi0ELb0EEC2B8ue170006ENS_18__default_init_tagE, symObjAddr: 0x5A68, symBinAddr: 0x1000072C0, symSize: 0x14 }
  - { offsetInCU: 0x12147, offset: 0x12147, size: 0x8, addend: 0x0, symName: __ZNSt3__122__compressed_pair_elemINS_9allocatorIcEELi1ELb1EEC2B8ue170006ENS_18__default_init_tagE, symObjAddr: 0x5A7C, symBinAddr: 0x1000072D4, symSize: 0x2C }
  - { offsetInCU: 0x1217C, offset: 0x1217C, size: 0x8, addend: 0x0, symName: __ZNSt3__19allocatorIcEC2B8ue170006Ev, symObjAddr: 0x5AA8, symBinAddr: 0x100007300, symSize: 0x2C }
  - { offsetInCU: 0x121A6, offset: 0x121A6, size: 0x8, addend: 0x0, symName: __ZNSt3__116__non_trivial_ifILb1ENS_9allocatorIcEEEC2B8ue170006Ev, symObjAddr: 0x5AD4, symBinAddr: 0x10000732C, symSize: 0x14 }
  - { offsetInCU: 0x121D0, offset: 0x121D0, size: 0x8, addend: 0x0, symName: __ZNKSt3__112basic_stringIcNS_11char_traitsIcEENS_9allocatorIcEEE13__get_pointerB8ue170006Ev, symObjAddr: 0x5AFC, symBinAddr: 0x100007354, symSize: 0x54 }
  - { offsetInCU: 0x121F6, offset: 0x121F6, size: 0x8, addend: 0x0, symName: __ZNKSt3__112basic_stringIcNS_11char_traitsIcEENS_9allocatorIcEEE9__is_longB8ue170006Ev, symObjAddr: 0x5B50, symBinAddr: 0x1000073A8, symSize: 0x38 }
  - { offsetInCU: 0x1221C, offset: 0x1221C, size: 0x8, addend: 0x0, symName: __ZNKSt3__112basic_stringIcNS_11char_traitsIcEENS_9allocatorIcEEE18__get_long_pointerB8ue170006Ev, symObjAddr: 0x5B88, symBinAddr: 0x1000073E0, symSize: 0x28 }
  - { offsetInCU: 0x12242, offset: 0x12242, size: 0x8, addend: 0x0, symName: __ZNKSt3__112basic_stringIcNS_11char_traitsIcEENS_9allocatorIcEEE19__get_short_pointerB8ue170006Ev, symObjAddr: 0x5BB0, symBinAddr: 0x100007408, symSize: 0x28 }
  - { offsetInCU: 0x12268, offset: 0x12268, size: 0x8, addend: 0x0, symName: __ZNKSt3__117__compressed_pairINS_12basic_stringIcNS_11char_traitsIcEENS_9allocatorIcEEE5__repES5_E5firstB8ue170006Ev, symObjAddr: 0x5BD8, symBinAddr: 0x100007430, symSize: 0x24 }
  - { offsetInCU: 0x1228E, offset: 0x1228E, size: 0x8, addend: 0x0, symName: __ZNKSt3__122__compressed_pair_elemINS_12basic_stringIcNS_11char_traitsIcEENS_9allocatorIcEEE5__repELi0ELb0EE5__getB8ue170006Ev, symObjAddr: 0x5BFC, symBinAddr: 0x100007454, symSize: 0x14 }
  - { offsetInCU: 0x122B4, offset: 0x122B4, size: 0x8, addend: 0x0, symName: __ZNSt3__114pointer_traitsIPKcE10pointer_toB8ue170006ERS1_, symObjAddr: 0x5C10, symBinAddr: 0x100007468, symSize: 0x14 }
  - { offsetInCU: 0x122D7, offset: 0x122D7, size: 0x8, addend: 0x0, symName: __ZNSt3__119ostreambuf_iteratorIcNS_11char_traitsIcEEEC2B8ue170006ERNS_13basic_ostreamIcS2_EE, symObjAddr: 0x5C24, symBinAddr: 0x10000747C, symSize: 0x54 }
  - { offsetInCU: 0x1230F, offset: 0x1230F, size: 0x8, addend: 0x0, symName: __ZNKSt3__19basic_iosIcNS_11char_traitsIcEEE5rdbufB8ue170006Ev, symObjAddr: 0x5C78, symBinAddr: 0x1000074D0, symSize: 0x24 }
  - { offsetInCU: 0x12337, offset: 0x12337, size: 0x8, addend: 0x0, symName: __ZNKSt3__18ios_base5rdbufB8ue170006Ev, symObjAddr: 0x5C9C, symBinAddr: 0x1000074F4, symSize: 0x18 }
  - { offsetInCU: 0x1235D, offset: 0x1235D, size: 0x8, addend: 0x0, symName: __ZNSt3__111char_traitsIcE11eq_int_typeB8ue170006Eii, symObjAddr: 0x5CB4, symBinAddr: 0x10000750C, symSize: 0x28 }
  - { offsetInCU: 0x12390, offset: 0x12390, size: 0x8, addend: 0x0, symName: __ZNSt3__111char_traitsIcE3eofB8ue170006Ev, symObjAddr: 0x5CDC, symBinAddr: 0x100007534, symSize: 0x8 }
  - { offsetInCU: 0x123A4, offset: 0x123A4, size: 0x8, addend: 0x0, symName: __ZNKSt3__19basic_iosIcNS_11char_traitsIcEEE5widenB8ue170006Ec, symObjAddr: 0x5CE4, symBinAddr: 0x10000753C, symSize: 0x84 }
  - { offsetInCU: 0x1240D, offset: 0x1240D, size: 0x8, addend: 0x0, symName: __ZNKSt3__15ctypeIcE5widenB8ue170006Ec, symObjAddr: 0x5D94, symBinAddr: 0x1000075EC, symSize: 0x38 }
  - { offsetInCU: 0x12442, offset: 0x12442, size: 0x8, addend: 0x0, symName: __ZNSt3__18ios_base8setstateB8ue170006Ej, symObjAddr: 0x5DCC, symBinAddr: 0x100007624, symSize: 0x34 }
...
